

HI-TECH Software PIC LITE Macro Assembler V9.83 build 10920 
                                                                                               Wed Jan 22 16:16:57 2014

HI-TECH Software Omniscient Code Generator (Lite mode) build 10920
     1  0000                     opt subtitle "HI-TECH Software Omniscient Code Generator (Lite mode) build 10920"
     2                           
     3                           opt pagewidth 120
     4                           
     5                           	opt lm
     6                           
     7                           	processor	16F819
     8                           clrc	macro
     9                           	bcf	3,0
    10  0000                     	endm
    11                           clrz	macro
    12                           	bcf	3,2
    13  0000                     	endm
    14                           setc	macro
    15                           	bsf	3,0
    16  0000                     	endm
    17                           setz	macro
    18                           	bsf	3,2
    19  0000                     	endm
    20                           skipc	macro
    21                           	btfss	3,0
    22  0000                     	endm
    23                           skipz	macro
    24                           	btfss	3,2
    25  0000                     	endm
    26                           skipnc	macro
    27                           	btfsc	3,0
    28  0000                     	endm
    29                           skipnz	macro
    30                           	btfsc	3,2
    31  0000                     	endm
    32  0000                     indf	equ	0
    33  0000                     indf0	equ	0
    34  0002                     pc	equ	2
    35  0002                     pcl	equ	2
    36  0003                     status	equ	3
    37  0004                     fsr	equ	4
    38  0004                     fsr0	equ	4
    39  0001                     c	equ	1
    40  0000                     z	equ	0
    41  000A                     pclath	equ	10
    42                           	FNCALL	_main,_init
    43                           	FNCALL	_main,_OPTION_SELECT
    44                           	FNCALL	_main,_PING
    45                           	FNCALL	_main,_interrupts
    46                           	FNCALL	_main,_ADC_READ
    47                           	FNCALL	_main,_OUTPUT
    48                           	FNCALL	_PING,_delay2
    49                           	FNCALL	_PING,_delay1
    50                           	FNCALL	_OPTION_SELECT,_delay
    51                           	FNROOT	_main
    52                           	FNCALL	intlevel1,_ISR
    53                           	global	intlevel1
    54                           	FNROOT	intlevel1
    55                           	global	_ADCHIGH
    56                           	global	_ADCLOW
    57                           	global	_AND
    58                           	global	_DATA
    59                           	global	_END
    60                           	global	_IN
    61                           	global	_OR
    62                           	global	_SPEED
    63                           	global	_T
    64                           	global	_Y
    65                           	global	_Z
    66                           	global	_adc1
    67                           	global	_count2
    68                           	global	_lasercount
    69                           	global	_laseroff
    70                           	global	_adc
    71                           	global	_c
    72                           	global	_i
    73                           psect	nvBANK0,class=BANK0,space=1
    74                           global __pnvBANK0
    75  0041                     __pnvBANK0:
    76  0041                     _i:
    77  0041                            ds      2
    78                           
    79                           	global	_ADCON0
    80  001F                     _ADCON0	set	31
    81                           	global	_ADRESH
    82  001E                     _ADRESH	set	30
    83                           	global	_PORTA
    84  0005                     _PORTA	set	5
    85                           	global	_PORTB
    86  0006                     _PORTB	set	6
    87                           	global	_ADON
    88  00F8                     _ADON	set	248
    89                           	global	_CARRY
    90  0018                     _CARRY	set	24
    91                           	global	_GIE
    92  005F                     _GIE	set	95
    93                           	global	_GO_DONE
    94  00FA                     _GO_DONE	set	250
    95                           	global	_INTE
    96  005C                     _INTE	set	92
    97                           	global	_INTF
    98  0059                     _INTF	set	89
    99                           	global	_PEIE
   100  005E                     _PEIE	set	94
   101                           	global	_RA1
   102  0029                     _RA1	set	41
   103                           	global	_RA6
   104  002E                     _RA6	set	46
   105                           	global	_RA7
   106  002F                     _RA7	set	47
   107                           	global	_RB0
   108  0030                     _RB0	set	48
   109                           	global	_RB1
   110  0031                     _RB1	set	49
   111                           	global	_RB2
   112  0032                     _RB2	set	50
   113                           	global	_RB3
   114  0033                     _RB3	set	51
   115                           	global	_RB4
   116  0034                     _RB4	set	52
   117                           	global	_RBIE
   118  005B                     _RBIE	set	91
   119                           	global	_SSPEN
   120  00A5                     _SSPEN	set	165
   121                           	global	_ADCON1
   122  009F                     _ADCON1	set	159
   123                           	global	_OSCCON
   124  008F                     _OSCCON	set	143
   125                           	global	_INTEDG
   126  040E                     _INTEDG	set	1038
   127                           	global	_TRISA0
   128  0428                     _TRISA0	set	1064
   129                           	global	_TRISA1
   130  0429                     _TRISA1	set	1065
   131                           	global	_TRISA2
   132  042A                     _TRISA2	set	1066
   133                           	global	_TRISA6
   134  042E                     _TRISA6	set	1070
   135                           	global	_TRISA7
   136  042F                     _TRISA7	set	1071
   137                           	global	_TRISB0
   138  0430                     _TRISB0	set	1072
   139                           	global	_TRISB1
   140  0431                     _TRISB1	set	1073
   141                           	global	_TRISB2
   142  0432                     _TRISB2	set	1074
   143                           	global	_TRISB3
   144  0433                     _TRISB3	set	1075
   145                           	global	_TRISB4
   146  0434                     _TRISB4	set	1076
   147                           	global	_TRISB5
   148  0435                     _TRISB5	set	1077
   149                           	global	_EEADR
   150  010D                     _EEADR	set	269
   151                           	global	_EEDATA
   152  010C                     _EEDATA	set	268
   153                           	global	_EECON1
   154  018C                     _EECON1	set	396
   155                           	global	_EECON2
   156  018D                     _EECON2	set	397
   157                           	global	_RD
   158  0C60                     _RD	set	3168
   159                           	global	_WR
   160  0C61                     _WR	set	3169
   161                           	global	_WREN
   162  0C62                     _WREN	set	3170
   163                           	file	"TRIG.as"
   164                           	line	#
   165                           psect cinit,class=CODE,delta=2
   166                           global start_initialization
   167  04DE                     start_initialization:
   168                           
   169                           psect	bssCOMMON,class=COMMON,space=1
   170                           global __pbssCOMMON
   171  0076                     __pbssCOMMON:
   172  0076                     _adc:
   173  0076                            ds      2
   174                           
   175  0078                     _c:
   176  0078                            ds      2
   177                           
   178                           psect	bssBANK0,class=BANK0,space=1
   179                           global __pbssBANK0
   180  0020                     __pbssBANK0:
   181  0020                     _ADCHIGH:
   182  0020                            ds      2
   183                           
   184  0022                     _ADCLOW:
   185  0022                            ds      2
   186                           
   187  0024                     _AND:
   188  0024                            ds      2
   189                           
   190  0026                     _DATA:
   191  0026                            ds      2
   192                           
   193  0028                     _END:
   194  0028                            ds      2
   195                           
   196  002A                     _IN:
   197  002A                            ds      2
   198                           
   199  002C                     _OR:
   200  002C                            ds      2
   201                           
   202  002E                     _SPEED:
   203  002E                            ds      2
   204                           
   205  0030                     _T:
   206  0030                            ds      2
   207                           
   208  0032                     _Y:
   209  0032                            ds      2
   210                           
   211  0034                     _Z:
   212  0034                            ds      2
   213                           
   214  0036                     _adc1:
   215  0036                            ds      2
   216                           
   217  0038                     _count2:
   218  0038                            ds      2
   219                           
   220  003A                     _lasercount:
   221  003A                            ds      2
   222                           
   223  003C                     _laseroff:
   224  003C                            ds      2
   225                           
   226                           psect clrtext,class=CODE,delta=2
   227                           global clear_ram
   228                           ;	Called with FSR containing the base address, and
   229                           ;	W with the last address+1
   230  04E9                     clear_ram:
   231  04E9  0064               	clrwdt			;clear the watchdog before getting into this loop
   232  04EA                     clrloop:
   233  04EA  0180               	clrf	indf		;clear RAM location pointed to by FSR
   234  04EB  0A84               	incf	fsr,f		;increment pointer
   235  04EC  0604               	xorwf	fsr,w		;XOR with final address
   236  04ED  1903               	btfsc	status,2	;have we reached the end yet?
   237  04EE  3400               	retlw	0		;all done for this memory range, return
   238  04EF  0604               	xorwf	fsr,w		;XOR again to restore value
   239  04F0  2CEA               	goto	clrloop		;do the next byte
   240                           
   241                           ; Clear objects allocated to COMMON
   242                           psect cinit,class=CODE,delta=2
   243  04DE  3076               	movlw	low(__pbssCOMMON)
   244  04DF  0084               	movwf	fsr
   245  04E0  307A               	movlw	low((__pbssCOMMON)+04h)
   246  04E1  24E9               	fcall	clear_ram
   247                           ; Clear objects allocated to BANK0
   248                           psect cinit,class=CODE,delta=2
   249  04E2  1383               	bcf	status, 7	;select IRP bank0
   250  04E3  3020               	movlw	low(__pbssBANK0)
   251  04E4  0084               	movwf	fsr
   252  04E5  303E               	movlw	low((__pbssBANK0)+01Eh)
   253  04E6  24E9               	fcall	clear_ram
   254                           psect cinit,class=CODE,delta=2
   255                           global end_of_initialization
   256                           
   257                           ;End of C runtime variable initialization code
   258                           
   259  04E7                     end_of_initialization:
   260  04E7  0183               clrf status
   261  04E8  2811               ljmp _main	;jump to C main() function
   262                           psect	cstackCOMMON,class=COMMON,space=1
   263                           global __pcstackCOMMON
   264  0070                     __pcstackCOMMON:
   265                           	global	?_init
   266  0070                     ?_init:	; 0 bytes @ 0x0
   267                           	global	?_interrupts
   268  0070                     ?_interrupts:	; 0 bytes @ 0x0
   269                           	global	?_delay
   270  0070                     ?_delay:	; 0 bytes @ 0x0
   271                           	global	?_delay2
   272  0070                     ?_delay2:	; 0 bytes @ 0x0
   273                           	global	?_OPTION_SELECT
   274  0070                     ?_OPTION_SELECT:	; 0 bytes @ 0x0
   275                           	global	?_delay1
   276  0070                     ?_delay1:	; 0 bytes @ 0x0
   277                           	global	?_ADC_READ
   278  0070                     ?_ADC_READ:	; 0 bytes @ 0x0
   279                           	global	?_OUTPUT
   280  0070                     ?_OUTPUT:	; 0 bytes @ 0x0
   281                           	global	?_main
   282  0070                     ?_main:	; 0 bytes @ 0x0
   283                           	global	?_ISR
   284  0070                     ?_ISR:	; 0 bytes @ 0x0
   285                           	global	??_ISR
   286  0070                     ??_ISR:	; 0 bytes @ 0x0
   287                           	global	?_PING
   288  0070                     ?_PING:	; 2 bytes @ 0x0
   289  0070                     	ds	4
   290                           	global	??_init
   291  0074                     ??_init:	; 0 bytes @ 0x4
   292                           	global	??_interrupts
   293  0074                     ??_interrupts:	; 0 bytes @ 0x4
   294                           	global	??_delay
   295  0074                     ??_delay:	; 0 bytes @ 0x4
   296                           	global	??_delay2
   297  0074                     ??_delay2:	; 0 bytes @ 0x4
   298                           	global	??_OPTION_SELECT
   299  0074                     ??_OPTION_SELECT:	; 0 bytes @ 0x4
   300                           	global	??_delay1
   301  0074                     ??_delay1:	; 0 bytes @ 0x4
   302                           	global	??_ADC_READ
   303  0074                     ??_ADC_READ:	; 0 bytes @ 0x4
   304                           	global	PING@a
   305  0074                     PING@a:	; 2 bytes @ 0x4
   306  0074                     	ds	2
   307                           	global	??_main
   308  0076                     ??_main:	; 0 bytes @ 0x6
   309                           psect	cstackBANK0,class=BANK0,space=1
   310                           global __pcstackBANK0
   311  003E                     __pcstackBANK0:
   312                           	global	??_PING
   313  003E                     ??_PING:	; 0 bytes @ 0x0
   314                           	global	??_OUTPUT
   315  003E                     ??_OUTPUT:	; 0 bytes @ 0x0
   316  003E                     	ds	3
   317 ;;Data sizes: Strings 0, constant 0, data 0, bss 34, persistent 2 stack 0
   318 ;;Auto spaces:   Size  Autos    Used
   319 ;; COMMON          14      6      10
   320 ;; BANK0           80      3      35
   321 ;; BANK1           80      0       0
   322 ;; BANK2           80      0       0
   323                           
   324 ;;
   325 ;; Pointer list with targets:
   326                           
   327                           
   328                           
   329 ;;
   330 ;; Critical Paths under _main in COMMON
   331 ;;
   332 ;;   _main->_PING
   333 ;;   _main->_ADC_READ
   334 ;;
   335 ;; Critical Paths under _ISR in COMMON
   336 ;;
   337 ;;   None.
   338 ;;
   339 ;; Critical Paths under _main in BANK0
   340 ;;
   341 ;;   _main->_PING
   342 ;;   _main->_OUTPUT
   343 ;;
   344 ;; Critical Paths under _ISR in BANK0
   345 ;;
   346 ;;   None.
   347 ;;
   348 ;; Critical Paths under _main in BANK1
   349 ;;
   350 ;;   None.
   351 ;;
   352 ;; Critical Paths under _ISR in BANK1
   353 ;;
   354 ;;   None.
   355 ;;
   356 ;; Critical Paths under _main in BANK2
   357 ;;
   358 ;;   None.
   359 ;;
   360 ;; Critical Paths under _ISR in BANK2
   361 ;;
   362 ;;   None.
   363                           
   364 ;;
   365 ;;Main: autosize = 0, tempsize = 0, incstack = 0, save=0
   366 ;;
   367                           
   368 ;;
   369 ;;Call Graph Tables:
   370 ;;
   371 ;; ---------------------------------------------------------------------------------
   372 ;; (Depth) Function   	        Calls       Base Space   Used Autos Params    Refs
   373 ;; ---------------------------------------------------------------------------------
   374 ;; (0) _main                                                 0     0      0     111
   375 ;;                               _init
   376 ;;                      _OPTION_SELECT
   377 ;;                               _PING
   378 ;;                         _interrupts
   379 ;;                           _ADC_READ
   380 ;;                             _OUTPUT
   381 ;; ---------------------------------------------------------------------------------
   382 ;; (1) _OUTPUT                                               3     3      0       0
   383 ;;                                              0 BANK0      3     3      0
   384 ;; ---------------------------------------------------------------------------------
   385 ;; (1) _PING                                                 5     5      0     111
   386 ;;                                              4 COMMON     2     2      0
   387 ;;                                              0 BANK0      3     3      0
   388 ;;                             _delay2
   389 ;;                             _delay1
   390 ;; ---------------------------------------------------------------------------------
   391 ;; (1) _ADC_READ                                             2     2      0       0
   392 ;;                                              4 COMMON     2     2      0
   393 ;; ---------------------------------------------------------------------------------
   394 ;; (1) _OPTION_SELECT                                        0     0      0       0
   395 ;;                              _delay
   396 ;; ---------------------------------------------------------------------------------
   397 ;; (2) _delay1                                               0     0      0       0
   398 ;; ---------------------------------------------------------------------------------
   399 ;; (2) _delay2                                               0     0      0       0
   400 ;; ---------------------------------------------------------------------------------
   401 ;; (2) _delay                                                0     0      0       0
   402 ;; ---------------------------------------------------------------------------------
   403 ;; (1) _interrupts                                           0     0      0       0
   404 ;; ---------------------------------------------------------------------------------
   405 ;; (1) _init                                                 0     0      0       0
   406 ;; ---------------------------------------------------------------------------------
   407 ;; Estimated maximum stack depth 2
   408 ;; ---------------------------------------------------------------------------------
   409 ;; (Depth) Function   	        Calls       Base Space   Used Autos Params    Refs
   410 ;; ---------------------------------------------------------------------------------
   411 ;; (3) _ISR                                                  4     4      0       0
   412 ;;                                              0 COMMON     4     4      0
   413 ;; ---------------------------------------------------------------------------------
   414 ;; Estimated maximum stack depth 3
   415 ;; ---------------------------------------------------------------------------------
   416                           
   417 ;; Call Graph Graphs:
   418                           
   419 ;; _main (ROOT)
   420 ;;   _init
   421 ;;   _OPTION_SELECT
   422 ;;     _delay
   423 ;;   _PING
   424 ;;     _delay2
   425 ;;     _delay1
   426 ;;   _interrupts
   427 ;;   _ADC_READ
   428 ;;   _OUTPUT
   429 ;;
   430 ;; _ISR (ROOT)
   431 ;;
   432                           
   433 ;; Address spaces:
   434                           
   435 ;;Name               Size   Autos  Total    Cost      Usage
   436 ;;BITCOMMON            E      0       0       0        0.0%
   437 ;;EEDATA             100      0       0       0        0.0%
   438 ;;NULL                 0      0       0       0        0.0%
   439 ;;CODE                 0      0       0       0        0.0%
   440 ;;COMMON               E      6       A       1       71.4%
   441 ;;BITSFR0              0      0       0       1        0.0%
   442 ;;SFR0                 0      0       0       1        0.0%
   443 ;;BITSFR1              0      0       0       2        0.0%
   444 ;;SFR1                 0      0       0       2        0.0%
   445 ;;STACK                0      0       2       2        0.0%
   446 ;;BANK0               50      3      23       3       43.8%
   447 ;;BITBANK1            50      0       0       4        0.0%
   448 ;;BITSFR3              0      0       0       4        0.0%
   449 ;;SFR3                 0      0       0       4        0.0%
   450 ;;BANK1               50      0       0       5        0.0%
   451 ;;BITSFR2              0      0       0       5        0.0%
   452 ;;SFR2                 0      0       0       5        0.0%
   453 ;;BITBANK2            50      0       0       6        0.0%
   454 ;;BANK2               50      0       0       7        0.0%
   455 ;;ABS                  0      0      2D       8        0.0%
   456 ;;BITBANK0            50      0       0       9        0.0%
   457 ;;DATA                 0      0      2F      10        0.0%
   458                           
   459                           	global	_main
   460                           psect	maintext,global,class=CODE,delta=2
   461                           global __pmaintext
   462  0011                     __pmaintext:
   463                           
   464 ;; *************** function _main *****************
   465 ;; Defined at:
   466 ;;		line 6 in file "G:\Active\Projects\TRI002\TRI002-Sensor Embedded\TRIG software PIR modified 21.01.14\Main.c"
   467 ;; Parameters:    Size  Location     Type
   468 ;;		None
   469 ;; Auto vars:     Size  Location     Type
   470 ;;		None
   471 ;; Return value:  Size  Location     Type
   472 ;;		None               void
   473 ;; Registers used:
   474 ;;		wreg, status,2, status,0, pclath, cstack
   475 ;; Tracked objects:
   476 ;;		On entry : 17F/0
   477 ;;		On exit  : 0/0
   478 ;;		Unchanged: 0/0
   479 ;; Data sizes:     COMMON   BANK0   BANK1   BANK2
   480 ;;      Params:         0       0       0       0
   481 ;;      Locals:         0       0       0       0
   482 ;;      Temps:          0       0       0       0
   483 ;;      Totals:         0       0       0       0
   484 ;;Total ram usage:        0 bytes
   485 ;; Hardware stack levels required when called:    3
   486 ;; This function calls:
   487 ;;		_init
   488 ;;		_OPTION_SELECT
   489 ;;		_PING
   490 ;;		_interrupts
   491 ;;		_ADC_READ
   492 ;;		_OUTPUT
   493 ;; This function is called by:
   494 ;;		Startup code after reset
   495 ;; This function uses a non-reentrant model
   496 ;;
   497                           psect	maintext
   498                           	file	"G:\Active\Projects\TRI002\TRI002-Sensor Embedded\TRIG software PIR modified 21.01
                                 .14\Main.c"
   499                           	line	6
   500                           	global	__size_of_main
   501  020C                     	__size_of_main	equ	__end_of_main-_main
   502                           	
   503  0011                     _main:	
   504                           	opt	stack 5
   505                           ; Regs used in _main: [wreg+status,2+status,0+pclath+cstack]
   506                           	line	7
   507                           	
   508  0011                     l3425:	
   509                           ;Main.c: 7: init();
   510  0011  24C1               	fcall	_init
   511                           	line	8
   512                           ;Main.c: 8: OPTION_SELECT();
   513  0012  240F               	fcall	_OPTION_SELECT
   514                           	line	9
   515                           	
   516  0013                     l3427:	
   517                           ;Main.c: 9: END =0;
   518  0013  1283               	bcf	status, 5	;RP0=0, select bank0
   519  0014  1303               	bcf	status, 6	;RP1=0, select bank0
   520  0015  01A8               	clrf	(_END)
   521  0016  01A9               	clrf	(_END+1)
   522                           	line	10
   523                           	
   524  0017                     l3429:	
   525                           ;Main.c: 10: c =0;
   526  0017  01F8               	clrf	(_c)
   527  0018  01F9               	clrf	(_c+1)
   528                           	line	11
   529                           	
   530  0019                     l3431:	
   531                           ;Main.c: 11: RA1 =0;
   532  0019  1085               	bcf	(41/8),(41)&7
   533                           	line	12
   534                           ;Main.c: 12: PING();
   535  001A  221D               	fcall	_PING
   536                           	line	13
   537                           	
   538  001B                     l3433:	
   539                           ;Main.c: 13: Y =0;
   540  001B  1283               	bcf	status, 5	;RP0=0, select bank0
   541  001C  1303               	bcf	status, 6	;RP1=0, select bank0
   542  001D  01B2               	clrf	(_Y)
   543  001E  01B3               	clrf	(_Y+1)
   544                           	line	14
   545                           	
   546  001F                     l3435:	
   547                           ;Main.c: 14: T =0;
   548  001F  01B0               	clrf	(_T)
   549  0020  01B1               	clrf	(_T+1)
   550                           	line	15
   551                           	
   552  0021                     l3437:	
   553                           ;Main.c: 15: IN =0;
   554  0021  01AA               	clrf	(_IN)
   555  0022  01AB               	clrf	(_IN+1)
   556                           	line	16
   557                           	
   558  0023                     l3439:	
   559                           ;Main.c: 16: TRISB1 =0;
   560  0023  1683               	bsf	status, 5	;RP0=1, select bank1
   561  0024  1303               	bcf	status, 6	;RP1=0, select bank1
   562  0025  1086               	bcf	(1073/8)^080h,(1073)&7
   563                           	line	17
   564                           	
   565  0026                     l3441:	
   566                           ;Main.c: 17: RB1 =1;
   567  0026  1283               	bcf	status, 5	;RP0=0, select bank0
   568  0027  1303               	bcf	status, 6	;RP1=0, select bank0
   569  0028  1486               	bsf	(49/8),(49)&7
   570                           	line	18
   571                           	
   572  0029                     l3443:	
   573                           ;Main.c: 18: RA1 =0;
   574  0029  1085               	bcf	(41/8),(41)&7
   575                           	line	19
   576                           	
   577  002A                     l3445:	
   578                           ;Main.c: 19: c =0;
   579  002A  01F8               	clrf	(_c)
   580  002B  01F9               	clrf	(_c+1)
   581                           	line	20
   582                           	
   583  002C                     l3447:	
   584                           ;Main.c: 20: RB4 =1;
   585  002C  1606               	bsf	(52/8),(52)&7
   586                           	line	21
   587                           	
   588  002D                     l3449:	
   589                           ;Main.c: 21: interrupts();
   590  002D  24F1               	fcall	_interrupts
   591                           	line	22
   592                           ;Main.c: 22: if(END ==1)
   593  002E  3001               	movlw	01h
   594  002F  1283               	bcf	status, 5	;RP0=0, select bank0
   595  0030  1303               	bcf	status, 6	;RP1=0, select bank0
   596  0031  0628               	xorwf	(_END),w
   597  0032  0429               	iorwf	(_END+1),w
   598  0033  1D03               	skipz
   599  0034  2836               	goto	u3961
   600  0035  2837               	goto	u3960
   601  0036                     u3961:
   602  0036  283A               	goto	l3453
   603  0037                     u3960:
   604                           	line	24
   605                           	
   606  0037                     l3451:	
   607                           ;Main.c: 23: {
   608                           ;Main.c: 24: INTE =0;
   609  0037  120B               	bcf	(92/8),(92)&7
   610                           	line	25
   611                           ;Main.c: 25: INTF =0;
   612  0038  108B               	bcf	(89/8),(89)&7
   613  0039  283A               	goto	l3453
   614                           	line	26
   615                           	
   616  003A                     l561:	
   617                           	line	27
   618                           	
   619  003A                     l3453:	
   620                           ;Main.c: 26: }
   621                           ;Main.c: 27: count2 =0;
   622  003A  01B8               	clrf	(_count2)
   623  003B  01B9               	clrf	(_count2+1)
   624  003C  2895               	goto	l3487
   625                           	line	29
   626                           ;Main.c: 29: while(1)
   627                           	
   628  003D                     l562:	
   629                           	line	34
   630                           ;Main.c: 30: {
   631                           ;Main.c: 34: while(Z ==1)
   632  003D  2895               	goto	l3487
   633                           	
   634  003E                     l564:	
   635  003E  283F               	goto	l3455
   636                           	line	36
   637                           ;Main.c: 35: {
   638                           ;Main.c: 36: while(1)
   639                           	
   640  003F                     l565:	
   641                           	line	38
   642                           	
   643  003F                     l3455:	
   644                           ;Main.c: 37: {
   645                           ;Main.c: 38: c++;
   646  003F  3001               	movlw	low(01h)
   647  0040  07F8               	addwf	(_c),f
   648  0041  1803               	skipnc
   649  0042  0AF9               	incf	(_c+1),f
   650  0043  3000               	movlw	high(01h)
   651  0044  07F9               	addwf	(_c+1),f
   652                           	line	39
   653                           ;Main.c: 39: while(c <25000)
   654  0045  2860               	goto	l3465
   655                           	
   656  0046                     l567:	
   657                           	line	41
   658                           	
   659  0046                     l3457:	
   660                           ;Main.c: 40: {
   661                           ;Main.c: 41: c++;
   662  0046  3001               	movlw	low(01h)
   663  0047  07F8               	addwf	(_c),f
   664  0048  1803               	skipnc
   665  0049  0AF9               	incf	(_c+1),f
   666  004A  3000               	movlw	high(01h)
   667  004B  07F9               	addwf	(_c+1),f
   668                           	line	42
   669                           ;Main.c: 42: if(c ==1500)
   670  004C  3005               	movlw	high(05DCh)
   671  004D  0679               	xorwf	(_c+1),w
   672  004E  1D03               	skipz
   673  004F  2852               	goto	u3975
   674  0050  30DC               	movlw	low(05DCh)
   675  0051  0678               	xorwf	(_c),w
   676  0052                     u3975:
   677                           
   678  0052  1D03               	skipz
   679  0053  2855               	goto	u3971
   680  0054  2856               	goto	u3970
   681  0055                     u3971:
   682  0055  2860               	goto	l3465
   683  0056                     u3970:
   684                           	line	44
   685                           	
   686  0056                     l3459:	
   687                           ;Main.c: 43: {
   688                           ;Main.c: 44: IN =0;
   689  0056  1283               	bcf	status, 5	;RP0=0, select bank0
   690  0057  1303               	bcf	status, 6	;RP1=0, select bank0
   691  0058  01AA               	clrf	(_IN)
   692  0059  01AB               	clrf	(_IN+1)
   693                           	line	45
   694                           ;Main.c: 45: T =0;
   695  005A  01B0               	clrf	(_T)
   696  005B  01B1               	clrf	(_T+1)
   697                           	line	46
   698                           	
   699  005C                     l3461:	
   700                           ;Main.c: 46: RB1 =1;
   701  005C  1486               	bsf	(49/8),(49)&7
   702                           	line	47
   703                           	
   704  005D                     l3463:	
   705                           ;Main.c: 47: RA1 =0;
   706  005D  1085               	bcf	(41/8),(41)&7
   707  005E  2860               	goto	l3465
   708                           	line	48
   709                           	
   710  005F                     l568:	
   711  005F  2860               	goto	l3465
   712                           	line	49
   713                           	
   714  0060                     l566:	
   715                           	line	39
   716                           	
   717  0060                     l3465:	
   718  0060  3061               	movlw	high(061A8h)
   719  0061  0279               	subwf	(_c+1),w
   720  0062  30A8               	movlw	low(061A8h)
   721  0063  1903               	skipnz
   722  0064  0278               	subwf	(_c),w
   723  0065  1C03               	skipc
   724  0066  2868               	goto	u3981
   725  0067  2869               	goto	u3980
   726  0068                     u3981:
   727  0068  2846               	goto	l3457
   728  0069                     u3980:
   729  0069  286A               	goto	l3467
   730                           	
   731  006A                     l569:	
   732                           	line	50
   733                           	
   734  006A                     l3467:	
   735                           ;Main.c: 48: }
   736                           ;Main.c: 49: }
   737                           ;Main.c: 50: ADC_READ();
   738  006A  243A               	fcall	_ADC_READ
   739                           	line	51
   740                           	
   741  006B                     l3469:	
   742                           ;Main.c: 51: if(adc <112)
   743  006B  3000               	movlw	high(070h)
   744  006C  0277               	subwf	(_adc+1),w
   745  006D  3070               	movlw	low(070h)
   746  006E  1903               	skipnz
   747  006F  0276               	subwf	(_adc),w
   748  0070  1803               	skipnc
   749  0071  2873               	goto	u3991
   750  0072  2874               	goto	u3990
   751  0073                     u3991:
   752  0073  287E               	goto	l3477
   753  0074                     u3990:
   754                           	line	55
   755                           	
   756  0074                     l3471:	
   757                           ;Main.c: 52: {
   758                           ;Main.c: 55: RA1 =1;
   759  0074  1283               	bcf	status, 5	;RP0=0, select bank0
   760  0075  1303               	bcf	status, 6	;RP1=0, select bank0
   761  0076  1485               	bsf	(41/8),(41)&7
   762                           	line	56
   763                           	
   764  0077                     l3473:	
   765                           ;Main.c: 56: T =2;
   766  0077  3002               	movlw	low(02h)
   767  0078  00B0               	movwf	(_T)
   768  0079  3000               	movlw	high(02h)
   769  007A  00B1               	movwf	((_T))+1
   770                           	line	57
   771                           	
   772  007B                     l3475:	
   773                           ;Main.c: 57: c =0;
   774  007B  01F8               	clrf	(_c)
   775  007C  01F9               	clrf	(_c+1)
   776  007D  287E               	goto	l3477
   777                           	line	61
   778                           	
   779  007E                     l570:	
   780                           	line	62
   781                           	
   782  007E                     l3477:	
   783                           ;Main.c: 61: }
   784                           ;Main.c: 62: if(adc >153)
   785  007E  3000               	movlw	high(09Ah)
   786  007F  0277               	subwf	(_adc+1),w
   787  0080  309A               	movlw	low(09Ah)
   788  0081  1903               	skipnz
   789  0082  0276               	subwf	(_adc),w
   790  0083  1C03               	skipc
   791  0084  2886               	goto	u4001
   792  0085  2887               	goto	u4000
   793  0086                     u4001:
   794  0086  2891               	goto	l3485
   795  0087                     u4000:
   796                           	line	66
   797                           	
   798  0087                     l3479:	
   799                           ;Main.c: 63: {
   800                           ;Main.c: 66: RA1 =1;
   801  0087  1283               	bcf	status, 5	;RP0=0, select bank0
   802  0088  1303               	bcf	status, 6	;RP1=0, select bank0
   803  0089  1485               	bsf	(41/8),(41)&7
   804                           	line	67
   805                           	
   806  008A                     l3481:	
   807                           ;Main.c: 67: T =2;
   808  008A  3002               	movlw	low(02h)
   809  008B  00B0               	movwf	(_T)
   810  008C  3000               	movlw	high(02h)
   811  008D  00B1               	movwf	((_T))+1
   812                           	line	68
   813                           	
   814  008E                     l3483:	
   815                           ;Main.c: 68: c =0;
   816  008E  01F8               	clrf	(_c)
   817  008F  01F9               	clrf	(_c+1)
   818  0090  2891               	goto	l3485
   819                           	line	72
   820                           	
   821  0091                     l571:	
   822                           	line	73
   823                           	
   824  0091                     l3485:	
   825                           ;Main.c: 72: }
   826                           ;Main.c: 73: OUTPUT();
   827  0091  2338               	fcall	_OUTPUT
   828  0092  283F               	goto	l3455
   829                           	line	74
   830                           	
   831  0093                     l572:	
   832                           	line	36
   833  0093  283F               	goto	l3455
   834                           	
   835  0094                     l573:	
   836  0094  2895               	goto	l3487
   837                           	line	75
   838                           	
   839  0095                     l563:	
   840                           	line	34
   841                           	
   842  0095                     l3487:	
   843  0095  3001               	movlw	01h
   844  0096  1283               	bcf	status, 5	;RP0=0, select bank0
   845  0097  1303               	bcf	status, 6	;RP1=0, select bank0
   846  0098  0634               	xorwf	(_Z),w
   847  0099  0435               	iorwf	(_Z+1),w
   848  009A  1903               	skipnz
   849  009B  289D               	goto	u4011
   850  009C  289E               	goto	u4010
   851  009D                     u4011:
   852  009D  283F               	goto	l3455
   853  009E                     u4010:
   854  009E  290A               	goto	l3533
   855                           	
   856  009F                     l574:	
   857                           	line	79
   858                           ;Main.c: 74: }
   859                           ;Main.c: 75: }
   860                           ;Main.c: 79: while(Z ==2)
   861  009F  290A               	goto	l3533
   862                           	
   863  00A0                     l576:	
   864                           	line	81
   865                           ;Main.c: 80: {
   866                           ;Main.c: 81: while(RB2 ==0)
   867  00A0  28CE               	goto	l3509
   868                           	
   869  00A1                     l578:	
   870                           	line	83
   871                           	
   872  00A1                     l3489:	
   873                           ;Main.c: 82: {
   874                           ;Main.c: 83: c++;
   875  00A1  3001               	movlw	low(01h)
   876  00A2  07F8               	addwf	(_c),f
   877  00A3  1803               	skipnc
   878  00A4  0AF9               	incf	(_c+1),f
   879  00A5  3000               	movlw	high(01h)
   880  00A6  07F9               	addwf	(_c+1),f
   881                           	line	84
   882                           ;Main.c: 84: if(c ==12500)
   883  00A7  3030               	movlw	high(030D4h)
   884  00A8  0679               	xorwf	(_c+1),w
   885  00A9  1D03               	skipz
   886  00AA  28AD               	goto	u4025
   887  00AB  30D4               	movlw	low(030D4h)
   888  00AC  0678               	xorwf	(_c),w
   889  00AD                     u4025:
   890                           
   891  00AD  1D03               	skipz
   892  00AE  28B0               	goto	u4021
   893  00AF  28B1               	goto	u4020
   894  00B0                     u4021:
   895  00B0  28B8               	goto	l3497
   896  00B1                     u4020:
   897                           	line	86
   898                           	
   899  00B1                     l3491:	
   900                           ;Main.c: 85: {
   901                           ;Main.c: 86: IN =0;
   902  00B1  01AA               	clrf	(_IN)
   903  00B2  01AB               	clrf	(_IN+1)
   904                           	line	87
   905                           ;Main.c: 87: T =0;
   906  00B3  01B0               	clrf	(_T)
   907  00B4  01B1               	clrf	(_T+1)
   908                           	line	88
   909                           	
   910  00B5                     l3493:	
   911                           ;Main.c: 88: RB1 =1;
   912  00B5  1486               	bsf	(49/8),(49)&7
   913                           	line	89
   914                           	
   915  00B6                     l3495:	
   916                           ;Main.c: 89: RA1 =0;
   917  00B6  1085               	bcf	(41/8),(41)&7
   918  00B7  28B8               	goto	l3497
   919                           	line	90
   920                           	
   921  00B8                     l579:	
   922                           	line	91
   923                           	
   924  00B8                     l3497:	
   925                           ;Main.c: 90: }
   926                           ;Main.c: 91: ADC_READ();
   927  00B8  243A               	fcall	_ADC_READ
   928                           	line	92
   929                           	
   930  00B9                     l3499:	
   931                           ;Main.c: 92: if(adc >194)
   932  00B9  3000               	movlw	high(0C3h)
   933  00BA  0277               	subwf	(_adc+1),w
   934  00BB  30C3               	movlw	low(0C3h)
   935  00BC  1903               	skipnz
   936  00BD  0276               	subwf	(_adc),w
   937  00BE  1C03               	skipc
   938  00BF  28C1               	goto	u4031
   939  00C0  28C2               	goto	u4030
   940  00C1                     u4031:
   941  00C1  28CC               	goto	l3507
   942  00C2                     u4030:
   943                           	line	94
   944                           	
   945  00C2                     l3501:	
   946                           ;Main.c: 93: {
   947                           ;Main.c: 94: RA1 =1;
   948  00C2  1283               	bcf	status, 5	;RP0=0, select bank0
   949  00C3  1303               	bcf	status, 6	;RP1=0, select bank0
   950  00C4  1485               	bsf	(41/8),(41)&7
   951                           	line	95
   952                           	
   953  00C5                     l3503:	
   954                           ;Main.c: 95: T =2;
   955  00C5  3002               	movlw	low(02h)
   956  00C6  00B0               	movwf	(_T)
   957  00C7  3000               	movlw	high(02h)
   958  00C8  00B1               	movwf	((_T))+1
   959                           	line	96
   960                           	
   961  00C9                     l3505:	
   962                           ;Main.c: 96: c =0;
   963  00C9  01F8               	clrf	(_c)
   964  00CA  01F9               	clrf	(_c+1)
   965  00CB  28CC               	goto	l3507
   966                           	line	97
   967                           	
   968  00CC                     l580:	
   969                           	line	98
   970                           	
   971  00CC                     l3507:	
   972                           ;Main.c: 97: }
   973                           ;Main.c: 98: OUTPUT();
   974  00CC  2338               	fcall	_OUTPUT
   975  00CD  28CE               	goto	l3509
   976                           	line	99
   977                           	
   978  00CE                     l577:	
   979                           	line	81
   980                           	
   981  00CE                     l3509:	
   982  00CE  1283               	bcf	status, 5	;RP0=0, select bank0
   983  00CF  1303               	bcf	status, 6	;RP1=0, select bank0
   984  00D0  1D06               	btfss	(50/8),(50)&7
   985  00D1  28D3               	goto	u4041
   986  00D2  28D4               	goto	u4040
   987  00D3                     u4041:
   988  00D3  28A1               	goto	l3489
   989  00D4                     u4040:
   990  00D4  2902               	goto	l3531
   991                           	
   992  00D5                     l581:	
   993                           	line	101
   994                           ;Main.c: 99: }
   995                           ;Main.c: 101: while(RB2 ==1)
   996  00D5  2902               	goto	l3531
   997                           	
   998  00D6                     l583:	
   999                           	line	103
  1000                           	
  1001  00D6                     l3511:	
  1002                           ;Main.c: 102: {
  1003                           ;Main.c: 103: c++;
  1004  00D6  3001               	movlw	low(01h)
  1005  00D7  07F8               	addwf	(_c),f
  1006  00D8  1803               	skipnc
  1007  00D9  0AF9               	incf	(_c+1),f
  1008  00DA  3000               	movlw	high(01h)
  1009  00DB  07F9               	addwf	(_c+1),f
  1010                           	line	104
  1011                           ;Main.c: 104: if(c >=12500)
  1012  00DC  3030               	movlw	high(030D4h)
  1013  00DD  0279               	subwf	(_c+1),w
  1014  00DE  30D4               	movlw	low(030D4h)
  1015  00DF  1903               	skipnz
  1016  00E0  0278               	subwf	(_c),w
  1017  00E1  1C03               	skipc
  1018  00E2  28E4               	goto	u4051
  1019  00E3  28E5               	goto	u4050
  1020  00E4                     u4051:
  1021  00E4  28EC               	goto	l3519
  1022  00E5                     u4050:
  1023                           	line	106
  1024                           	
  1025  00E5                     l3513:	
  1026                           ;Main.c: 105: {
  1027                           ;Main.c: 106: IN =0;
  1028  00E5  01AA               	clrf	(_IN)
  1029  00E6  01AB               	clrf	(_IN+1)
  1030                           	line	107
  1031                           ;Main.c: 107: T =0;
  1032  00E7  01B0               	clrf	(_T)
  1033  00E8  01B1               	clrf	(_T+1)
  1034                           	line	108
  1035                           	
  1036  00E9                     l3515:	
  1037                           ;Main.c: 108: RB1 =1;
  1038  00E9  1486               	bsf	(49/8),(49)&7
  1039                           	line	109
  1040                           	
  1041  00EA                     l3517:	
  1042                           ;Main.c: 109: RA1 =0;
  1043  00EA  1085               	bcf	(41/8),(41)&7
  1044  00EB  28EC               	goto	l3519
  1045                           	line	110
  1046                           	
  1047  00EC                     l584:	
  1048                           	line	111
  1049                           	
  1050  00EC                     l3519:	
  1051                           ;Main.c: 110: }
  1052                           ;Main.c: 111: ADC_READ();
  1053  00EC  243A               	fcall	_ADC_READ
  1054                           	line	112
  1055                           	
  1056  00ED                     l3521:	
  1057                           ;Main.c: 112: if(adc <145)
  1058  00ED  3000               	movlw	high(091h)
  1059  00EE  0277               	subwf	(_adc+1),w
  1060  00EF  3091               	movlw	low(091h)
  1061  00F0  1903               	skipnz
  1062  00F1  0276               	subwf	(_adc),w
  1063  00F2  1803               	skipnc
  1064  00F3  28F5               	goto	u4061
  1065  00F4  28F6               	goto	u4060
  1066  00F5                     u4061:
  1067  00F5  2900               	goto	l3529
  1068  00F6                     u4060:
  1069                           	line	114
  1070                           	
  1071  00F6                     l3523:	
  1072                           ;Main.c: 113: {
  1073                           ;Main.c: 114: RA1 =1;
  1074  00F6  1283               	bcf	status, 5	;RP0=0, select bank0
  1075  00F7  1303               	bcf	status, 6	;RP1=0, select bank0
  1076  00F8  1485               	bsf	(41/8),(41)&7
  1077                           	line	115
  1078                           	
  1079  00F9                     l3525:	
  1080                           ;Main.c: 115: T =2;
  1081  00F9  3002               	movlw	low(02h)
  1082  00FA  00B0               	movwf	(_T)
  1083  00FB  3000               	movlw	high(02h)
  1084  00FC  00B1               	movwf	((_T))+1
  1085                           	line	116
  1086                           	
  1087  00FD                     l3527:	
  1088                           ;Main.c: 116: c =0;
  1089  00FD  01F8               	clrf	(_c)
  1090  00FE  01F9               	clrf	(_c+1)
  1091  00FF  2900               	goto	l3529
  1092                           	line	117
  1093                           	
  1094  0100                     l585:	
  1095                           	line	118
  1096                           	
  1097  0100                     l3529:	
  1098                           ;Main.c: 117: }
  1099                           ;Main.c: 118: OUTPUT();
  1100  0100  2338               	fcall	_OUTPUT
  1101  0101  2902               	goto	l3531
  1102                           	line	119
  1103                           	
  1104  0102                     l582:	
  1105                           	line	101
  1106                           	
  1107  0102                     l3531:	
  1108  0102  1283               	bcf	status, 5	;RP0=0, select bank0
  1109  0103  1303               	bcf	status, 6	;RP1=0, select bank0
  1110  0104  1906               	btfsc	(50/8),(50)&7
  1111  0105  2907               	goto	u4071
  1112  0106  2908               	goto	u4070
  1113  0107                     u4071:
  1114  0107  28D6               	goto	l3511
  1115  0108                     u4070:
  1116  0108  290A               	goto	l3533
  1117                           	
  1118  0109                     l586:	
  1119  0109  290A               	goto	l3533
  1120                           	line	120
  1121                           	
  1122  010A                     l575:	
  1123                           	line	79
  1124                           	
  1125  010A                     l3533:	
  1126  010A  3002               	movlw	02h
  1127  010B  0634               	xorwf	(_Z),w
  1128  010C  0435               	iorwf	(_Z+1),w
  1129  010D  1903               	skipnz
  1130  010E  2910               	goto	u4081
  1131  010F  2911               	goto	u4080
  1132  0110                     u4081:
  1133  0110  28CE               	goto	l3509
  1134  0111                     u4080:
  1135  0111  297C               	goto	l3579
  1136                           	
  1137  0112                     l587:	
  1138                           	line	124
  1139                           ;Main.c: 119: }
  1140                           ;Main.c: 120: }
  1141                           ;Main.c: 124: while(Z ==3)
  1142  0112  297C               	goto	l3579
  1143                           	
  1144  0113                     l589:	
  1145                           	line	126
  1146                           ;Main.c: 125: {
  1147                           ;Main.c: 126: while(RB2 ==0)
  1148  0113  2940               	goto	l3555
  1149                           	
  1150  0114                     l591:	
  1151                           	line	128
  1152                           	
  1153  0114                     l3535:	
  1154                           ;Main.c: 127: {
  1155                           ;Main.c: 128: c++;
  1156  0114  3001               	movlw	low(01h)
  1157  0115  07F8               	addwf	(_c),f
  1158  0116  1803               	skipnc
  1159  0117  0AF9               	incf	(_c+1),f
  1160  0118  3000               	movlw	high(01h)
  1161  0119  07F9               	addwf	(_c+1),f
  1162                           	line	129
  1163                           ;Main.c: 129: if(c >=12500)
  1164  011A  3030               	movlw	high(030D4h)
  1165  011B  0279               	subwf	(_c+1),w
  1166  011C  30D4               	movlw	low(030D4h)
  1167  011D  1903               	skipnz
  1168  011E  0278               	subwf	(_c),w
  1169  011F  1C03               	skipc
  1170  0120  2922               	goto	u4091
  1171  0121  2923               	goto	u4090
  1172  0122                     u4091:
  1173  0122  292A               	goto	l3543
  1174  0123                     u4090:
  1175                           	line	131
  1176                           	
  1177  0123                     l3537:	
  1178                           ;Main.c: 130: {
  1179                           ;Main.c: 131: IN =0;
  1180  0123  01AA               	clrf	(_IN)
  1181  0124  01AB               	clrf	(_IN+1)
  1182                           	line	132
  1183                           ;Main.c: 132: T =0;
  1184  0125  01B0               	clrf	(_T)
  1185  0126  01B1               	clrf	(_T+1)
  1186                           	line	133
  1187                           	
  1188  0127                     l3539:	
  1189                           ;Main.c: 133: RB1 =1;
  1190  0127  1486               	bsf	(49/8),(49)&7
  1191                           	line	134
  1192                           	
  1193  0128                     l3541:	
  1194                           ;Main.c: 134: RA1 =0;
  1195  0128  1085               	bcf	(41/8),(41)&7
  1196  0129  292A               	goto	l3543
  1197                           	line	135
  1198                           	
  1199  012A                     l592:	
  1200                           	line	136
  1201                           	
  1202  012A                     l3543:	
  1203                           ;Main.c: 135: }
  1204                           ;Main.c: 136: ADC_READ();
  1205  012A  243A               	fcall	_ADC_READ
  1206                           	line	137
  1207                           	
  1208  012B                     l3545:	
  1209                           ;Main.c: 137: if(adc >209)
  1210  012B  3000               	movlw	high(0D2h)
  1211  012C  0277               	subwf	(_adc+1),w
  1212  012D  30D2               	movlw	low(0D2h)
  1213  012E  1903               	skipnz
  1214  012F  0276               	subwf	(_adc),w
  1215  0130  1C03               	skipc
  1216  0131  2933               	goto	u4101
  1217  0132  2934               	goto	u4100
  1218  0133                     u4101:
  1219  0133  293E               	goto	l3553
  1220  0134                     u4100:
  1221                           	line	139
  1222                           	
  1223  0134                     l3547:	
  1224                           ;Main.c: 138: {
  1225                           ;Main.c: 139: RA1 =1;
  1226  0134  1283               	bcf	status, 5	;RP0=0, select bank0
  1227  0135  1303               	bcf	status, 6	;RP1=0, select bank0
  1228  0136  1485               	bsf	(41/8),(41)&7
  1229                           	line	140
  1230                           	
  1231  0137                     l3549:	
  1232                           ;Main.c: 140: T =2;
  1233  0137  3002               	movlw	low(02h)
  1234  0138  00B0               	movwf	(_T)
  1235  0139  3000               	movlw	high(02h)
  1236  013A  00B1               	movwf	((_T))+1
  1237                           	line	141
  1238                           	
  1239  013B                     l3551:	
  1240                           ;Main.c: 141: c =0;
  1241  013B  01F8               	clrf	(_c)
  1242  013C  01F9               	clrf	(_c+1)
  1243  013D  293E               	goto	l3553
  1244                           	line	142
  1245                           	
  1246  013E                     l593:	
  1247                           	line	143
  1248                           	
  1249  013E                     l3553:	
  1250                           ;Main.c: 142: }
  1251                           ;Main.c: 143: OUTPUT();
  1252  013E  2338               	fcall	_OUTPUT
  1253  013F  2940               	goto	l3555
  1254                           	line	144
  1255                           	
  1256  0140                     l590:	
  1257                           	line	126
  1258                           	
  1259  0140                     l3555:	
  1260  0140  1283               	bcf	status, 5	;RP0=0, select bank0
  1261  0141  1303               	bcf	status, 6	;RP1=0, select bank0
  1262  0142  1D06               	btfss	(50/8),(50)&7
  1263  0143  2945               	goto	u4111
  1264  0144  2946               	goto	u4110
  1265  0145                     u4111:
  1266  0145  2914               	goto	l3535
  1267  0146                     u4110:
  1268  0146  2974               	goto	l3577
  1269                           	
  1270  0147                     l594:	
  1271                           	line	145
  1272                           ;Main.c: 144: }
  1273                           ;Main.c: 145: while(RB2 ==1)
  1274  0147  2974               	goto	l3577
  1275                           	
  1276  0148                     l596:	
  1277                           	line	147
  1278                           	
  1279  0148                     l3557:	
  1280                           ;Main.c: 146: {
  1281                           ;Main.c: 147: c++;
  1282  0148  3001               	movlw	low(01h)
  1283  0149  07F8               	addwf	(_c),f
  1284  014A  1803               	skipnc
  1285  014B  0AF9               	incf	(_c+1),f
  1286  014C  3000               	movlw	high(01h)
  1287  014D  07F9               	addwf	(_c+1),f
  1288                           	line	148
  1289                           ;Main.c: 148: if(c >=12500)
  1290  014E  3030               	movlw	high(030D4h)
  1291  014F  0279               	subwf	(_c+1),w
  1292  0150  30D4               	movlw	low(030D4h)
  1293  0151  1903               	skipnz
  1294  0152  0278               	subwf	(_c),w
  1295  0153  1C03               	skipc
  1296  0154  2956               	goto	u4121
  1297  0155  2957               	goto	u4120
  1298  0156                     u4121:
  1299  0156  295E               	goto	l3565
  1300  0157                     u4120:
  1301                           	line	150
  1302                           	
  1303  0157                     l3559:	
  1304                           ;Main.c: 149: {
  1305                           ;Main.c: 150: IN =0;
  1306  0157  01AA               	clrf	(_IN)
  1307  0158  01AB               	clrf	(_IN+1)
  1308                           	line	151
  1309                           ;Main.c: 151: T =0;
  1310  0159  01B0               	clrf	(_T)
  1311  015A  01B1               	clrf	(_T+1)
  1312                           	line	152
  1313                           	
  1314  015B                     l3561:	
  1315                           ;Main.c: 152: RB1 =1;
  1316  015B  1486               	bsf	(49/8),(49)&7
  1317                           	line	153
  1318                           	
  1319  015C                     l3563:	
  1320                           ;Main.c: 153: RA1 =0;
  1321  015C  1085               	bcf	(41/8),(41)&7
  1322  015D  295E               	goto	l3565
  1323                           	line	154
  1324                           	
  1325  015E                     l597:	
  1326                           	line	155
  1327                           	
  1328  015E                     l3565:	
  1329                           ;Main.c: 154: }
  1330                           ;Main.c: 155: ADC_READ();
  1331  015E  243A               	fcall	_ADC_READ
  1332                           	line	156
  1333                           	
  1334  015F                     l3567:	
  1335                           ;Main.c: 156: if(adc <160)
  1336  015F  3000               	movlw	high(0A0h)
  1337  0160  0277               	subwf	(_adc+1),w
  1338  0161  30A0               	movlw	low(0A0h)
  1339  0162  1903               	skipnz
  1340  0163  0276               	subwf	(_adc),w
  1341  0164  1803               	skipnc
  1342  0165  2967               	goto	u4131
  1343  0166  2968               	goto	u4130
  1344  0167                     u4131:
  1345  0167  2972               	goto	l3575
  1346  0168                     u4130:
  1347                           	line	158
  1348                           	
  1349  0168                     l3569:	
  1350                           ;Main.c: 157: {
  1351                           ;Main.c: 158: RA1 =1;
  1352  0168  1283               	bcf	status, 5	;RP0=0, select bank0
  1353  0169  1303               	bcf	status, 6	;RP1=0, select bank0
  1354  016A  1485               	bsf	(41/8),(41)&7
  1355                           	line	159
  1356                           	
  1357  016B                     l3571:	
  1358                           ;Main.c: 159: T =2;
  1359  016B  3002               	movlw	low(02h)
  1360  016C  00B0               	movwf	(_T)
  1361  016D  3000               	movlw	high(02h)
  1362  016E  00B1               	movwf	((_T))+1
  1363                           	line	160
  1364                           	
  1365  016F                     l3573:	
  1366                           ;Main.c: 160: c =0;
  1367  016F  01F8               	clrf	(_c)
  1368  0170  01F9               	clrf	(_c+1)
  1369  0171  2972               	goto	l3575
  1370                           	line	161
  1371                           	
  1372  0172                     l598:	
  1373                           	line	162
  1374                           	
  1375  0172                     l3575:	
  1376                           ;Main.c: 161: }
  1377                           ;Main.c: 162: OUTPUT();
  1378  0172  2338               	fcall	_OUTPUT
  1379  0173  2974               	goto	l3577
  1380                           	line	163
  1381                           	
  1382  0174                     l595:	
  1383                           	line	145
  1384                           	
  1385  0174                     l3577:	
  1386  0174  1283               	bcf	status, 5	;RP0=0, select bank0
  1387  0175  1303               	bcf	status, 6	;RP1=0, select bank0
  1388  0176  1906               	btfsc	(50/8),(50)&7
  1389  0177  2979               	goto	u4141
  1390  0178  297A               	goto	u4140
  1391  0179                     u4141:
  1392  0179  2948               	goto	l3557
  1393  017A                     u4140:
  1394  017A  297C               	goto	l3579
  1395                           	
  1396  017B                     l599:	
  1397  017B  297C               	goto	l3579
  1398                           	line	164
  1399                           	
  1400  017C                     l588:	
  1401                           	line	124
  1402                           	
  1403  017C                     l3579:	
  1404  017C  3003               	movlw	03h
  1405  017D  0634               	xorwf	(_Z),w
  1406  017E  0435               	iorwf	(_Z+1),w
  1407  017F  1903               	skipnz
  1408  0180  2982               	goto	u4151
  1409  0181  2983               	goto	u4150
  1410  0182                     u4151:
  1411  0182  2940               	goto	l3555
  1412  0183                     u4150:
  1413  0183  2A12               	goto	l3643
  1414                           	
  1415  0184                     l600:	
  1416                           	line	168
  1417                           ;Main.c: 163: }
  1418                           ;Main.c: 164: }
  1419                           ;Main.c: 168: while(Z ==4)
  1420  0184  2A12               	goto	l3643
  1421                           	
  1422  0185                     l602:	
  1423                           	line	170
  1424                           ;Main.c: 169: {
  1425                           ;Main.c: 170: RBIE =0;
  1426  0185  118B               	bcf	(91/8),(91)&7
  1427                           	line	171
  1428                           ;Main.c: 171: RB3 =1;
  1429  0186  1586               	bsf	(51/8),(51)&7
  1430                           	line	172
  1431                           	
  1432  0187                     l3581:	
  1433                           ;Main.c: 172: c =0;
  1434  0187  01F8               	clrf	(_c)
  1435  0188  01F9               	clrf	(_c+1)
  1436                           	line	173
  1437                           ;Main.c: 173: laseroff =0;
  1438  0189  01BC               	clrf	(_laseroff)
  1439  018A  01BD               	clrf	(_laseroff+1)
  1440                           	line	174
  1441                           ;Main.c: 174: while(RB2 ==0)
  1442  018B  29C7               	goto	l3611
  1443                           	
  1444  018C                     l604:	
  1445                           	line	176
  1446                           	
  1447  018C                     l3583:	
  1448                           ;Main.c: 175: {
  1449                           ;Main.c: 176: c++;
  1450  018C  3001               	movlw	low(01h)
  1451  018D  07F8               	addwf	(_c),f
  1452  018E  1803               	skipnc
  1453  018F  0AF9               	incf	(_c+1),f
  1454  0190  3000               	movlw	high(01h)
  1455  0191  07F9               	addwf	(_c+1),f
  1456                           	line	177
  1457                           ;Main.c: 177: if(c >=2)
  1458  0192  3000               	movlw	high(02h)
  1459  0193  0279               	subwf	(_c+1),w
  1460  0194  3002               	movlw	low(02h)
  1461  0195  1903               	skipnz
  1462  0196  0278               	subwf	(_c),w
  1463  0197  1C03               	skipc
  1464  0198  299A               	goto	u4161
  1465  0199  299B               	goto	u4160
  1466  019A                     u4161:
  1467  019A  29A2               	goto	l3591
  1468  019B                     u4160:
  1469                           	line	179
  1470                           	
  1471  019B                     l3585:	
  1472                           ;Main.c: 178: {
  1473                           ;Main.c: 179: IN =0;
  1474  019B  01AA               	clrf	(_IN)
  1475  019C  01AB               	clrf	(_IN+1)
  1476                           	line	180
  1477                           ;Main.c: 180: T =0;
  1478  019D  01B0               	clrf	(_T)
  1479  019E  01B1               	clrf	(_T+1)
  1480                           	line	181
  1481                           	
  1482  019F                     l3587:	
  1483                           ;Main.c: 181: RA1 =0;
  1484  019F  1085               	bcf	(41/8),(41)&7
  1485                           	line	182
  1486                           	
  1487  01A0                     l3589:	
  1488                           ;Main.c: 182: RB1 =1;
  1489  01A0  1486               	bsf	(49/8),(49)&7
  1490  01A1  29A2               	goto	l3591
  1491                           	line	183
  1492                           	
  1493  01A2                     l605:	
  1494                           	line	184
  1495                           	
  1496  01A2                     l3591:	
  1497                           ;Main.c: 183: }
  1498                           ;Main.c: 184: ADC_READ();
  1499  01A2  243A               	fcall	_ADC_READ
  1500                           	line	185
  1501                           	
  1502  01A3                     l3593:	
  1503                           ;Main.c: 185: if(adc <203)
  1504  01A3  3000               	movlw	high(0CBh)
  1505  01A4  0277               	subwf	(_adc+1),w
  1506  01A5  30CB               	movlw	low(0CBh)
  1507  01A6  1903               	skipnz
  1508  01A7  0276               	subwf	(_adc),w
  1509  01A8  1803               	skipnc
  1510  01A9  29AB               	goto	u4171
  1511  01AA  29AC               	goto	u4170
  1512  01AB                     u4171:
  1513  01AB  29C0               	goto	l3607
  1514  01AC                     u4170:
  1515                           	line	187
  1516                           	
  1517  01AC                     l3595:	
  1518                           ;Main.c: 186: {
  1519                           ;Main.c: 187: if(laseroff ==0)
  1520  01AC  1283               	bcf	status, 5	;RP0=0, select bank0
  1521  01AD  1303               	bcf	status, 6	;RP1=0, select bank0
  1522  01AE  083D               	movf	((_laseroff+1)),w
  1523  01AF  043C               	iorwf	((_laseroff)),w
  1524  01B0  1D03               	skipz
  1525  01B1  29B3               	goto	u4181
  1526  01B2  29B4               	goto	u4180
  1527  01B3                     u4181:
  1528  01B3  29BD               	goto	l3605
  1529  01B4                     u4180:
  1530                           	line	189
  1531                           	
  1532  01B4                     l3597:	
  1533                           ;Main.c: 188: {
  1534                           ;Main.c: 189: RA1 =1;
  1535  01B4  1485               	bsf	(41/8),(41)&7
  1536                           	line	190
  1537                           	
  1538  01B5                     l3599:	
  1539                           ;Main.c: 190: T =2;
  1540  01B5  3002               	movlw	low(02h)
  1541  01B6  00B0               	movwf	(_T)
  1542  01B7  3000               	movlw	high(02h)
  1543  01B8  00B1               	movwf	((_T))+1
  1544                           	line	191
  1545                           	
  1546  01B9                     l3601:	
  1547                           ;Main.c: 191: RB3 =0;
  1548  01B9  1186               	bcf	(51/8),(51)&7
  1549                           	line	192
  1550                           	
  1551  01BA                     l3603:	
  1552                           ;Main.c: 192: c =0;
  1553  01BA  01F8               	clrf	(_c)
  1554  01BB  01F9               	clrf	(_c+1)
  1555  01BC  29BD               	goto	l3605
  1556                           	line	193
  1557                           	
  1558  01BD                     l607:	
  1559                           	line	194
  1560                           	
  1561  01BD                     l3605:	
  1562                           ;Main.c: 193: }
  1563                           ;Main.c: 194: c =0;
  1564  01BD  01F8               	clrf	(_c)
  1565  01BE  01F9               	clrf	(_c+1)
  1566                           	line	195
  1567                           ;Main.c: 195: }
  1568  01BF  29C5               	goto	l3609
  1569                           	line	196
  1570                           	
  1571  01C0                     l606:	
  1572                           	line	198
  1573                           	
  1574  01C0                     l3607:	
  1575                           ;Main.c: 196: else
  1576                           ;Main.c: 197: {
  1577                           ;Main.c: 198: laseroff =0;
  1578  01C0  1283               	bcf	status, 5	;RP0=0, select bank0
  1579  01C1  1303               	bcf	status, 6	;RP1=0, select bank0
  1580  01C2  01BC               	clrf	(_laseroff)
  1581  01C3  01BD               	clrf	(_laseroff+1)
  1582  01C4  29C5               	goto	l3609
  1583                           	line	199
  1584                           	
  1585  01C5                     l608:	
  1586                           	line	200
  1587                           	
  1588  01C5                     l3609:	
  1589                           ;Main.c: 199: }
  1590                           ;Main.c: 200: OUTPUT();
  1591  01C5  2338               	fcall	_OUTPUT
  1592  01C6  29C7               	goto	l3611
  1593                           	line	202
  1594                           	
  1595  01C7                     l603:	
  1596                           	line	174
  1597                           	
  1598  01C7                     l3611:	
  1599  01C7  1283               	bcf	status, 5	;RP0=0, select bank0
  1600  01C8  1303               	bcf	status, 6	;RP1=0, select bank0
  1601  01C9  1D06               	btfss	(50/8),(50)&7
  1602  01CA  29CC               	goto	u4191
  1603  01CB  29CD               	goto	u4190
  1604  01CC                     u4191:
  1605  01CC  298C               	goto	l3583
  1606  01CD                     u4190:
  1607  01CD  29CE               	goto	l3613
  1608                           	
  1609  01CE                     l609:	
  1610                           	line	203
  1611                           	
  1612  01CE                     l3613:	
  1613                           ;Main.c: 202: }
  1614                           ;Main.c: 203: laseroff =0;
  1615  01CE  01BC               	clrf	(_laseroff)
  1616  01CF  01BD               	clrf	(_laseroff+1)
  1617                           	line	204
  1618                           ;Main.c: 204: while(RB2 ==1)
  1619  01D0  2A0A               	goto	l3641
  1620                           	
  1621  01D1                     l611:	
  1622                           	line	206
  1623                           	
  1624  01D1                     l3615:	
  1625                           ;Main.c: 205: {
  1626                           ;Main.c: 206: c++;
  1627  01D1  3001               	movlw	low(01h)
  1628  01D2  07F8               	addwf	(_c),f
  1629  01D3  1803               	skipnc
  1630  01D4  0AF9               	incf	(_c+1),f
  1631  01D5  3000               	movlw	high(01h)
  1632  01D6  07F9               	addwf	(_c+1),f
  1633                           	line	207
  1634                           ;Main.c: 207: if(c >=2)
  1635  01D7  3000               	movlw	high(02h)
  1636  01D8  0279               	subwf	(_c+1),w
  1637  01D9  3002               	movlw	low(02h)
  1638  01DA  1903               	skipnz
  1639  01DB  0278               	subwf	(_c),w
  1640  01DC  1C03               	skipc
  1641  01DD  29DF               	goto	u4201
  1642  01DE  29E0               	goto	u4200
  1643  01DF                     u4201:
  1644  01DF  29E7               	goto	l3623
  1645  01E0                     u4200:
  1646                           	line	209
  1647                           	
  1648  01E0                     l3617:	
  1649                           ;Main.c: 208: {
  1650                           ;Main.c: 209: IN =0;
  1651  01E0  01AA               	clrf	(_IN)
  1652  01E1  01AB               	clrf	(_IN+1)
  1653                           	line	210
  1654                           ;Main.c: 210: T =0;
  1655  01E2  01B0               	clrf	(_T)
  1656  01E3  01B1               	clrf	(_T+1)
  1657                           	line	211
  1658                           	
  1659  01E4                     l3619:	
  1660                           ;Main.c: 211: RB1 =1;
  1661  01E4  1486               	bsf	(49/8),(49)&7
  1662                           	line	212
  1663                           	
  1664  01E5                     l3621:	
  1665                           ;Main.c: 212: RA1 =0;
  1666  01E5  1085               	bcf	(41/8),(41)&7
  1667  01E6  29E7               	goto	l3623
  1668                           	line	213
  1669                           	
  1670  01E7                     l612:	
  1671                           	line	214
  1672                           	
  1673  01E7                     l3623:	
  1674                           ;Main.c: 213: }
  1675                           ;Main.c: 214: ADC_READ();
  1676  01E7  243A               	fcall	_ADC_READ
  1677                           	line	215
  1678                           	
  1679  01E8                     l3625:	
  1680                           ;Main.c: 215: if(adc>203)
  1681  01E8  3000               	movlw	high(0CCh)
  1682  01E9  0277               	subwf	(_adc+1),w
  1683  01EA  30CC               	movlw	low(0CCh)
  1684  01EB  1903               	skipnz
  1685  01EC  0276               	subwf	(_adc),w
  1686  01ED  1C03               	skipc
  1687  01EE  29F0               	goto	u4211
  1688  01EF  29F1               	goto	u4210
  1689  01F0                     u4211:
  1690  01F0  2A03               	goto	l3637
  1691  01F1                     u4210:
  1692                           	line	217
  1693                           	
  1694  01F1                     l3627:	
  1695                           ;Main.c: 216: {
  1696                           ;Main.c: 217: if(laseroff ==0)
  1697  01F1  1283               	bcf	status, 5	;RP0=0, select bank0
  1698  01F2  1303               	bcf	status, 6	;RP1=0, select bank0
  1699  01F3  083D               	movf	((_laseroff+1)),w
  1700  01F4  043C               	iorwf	((_laseroff)),w
  1701  01F5  1D03               	skipz
  1702  01F6  29F8               	goto	u4221
  1703  01F7  29F9               	goto	u4220
  1704  01F8                     u4221:
  1705  01F8  2A00               	goto	l3635
  1706  01F9                     u4220:
  1707                           	line	219
  1708                           	
  1709  01F9                     l3629:	
  1710                           ;Main.c: 218: {
  1711                           ;Main.c: 219: RA1 =1;
  1712  01F9  1485               	bsf	(41/8),(41)&7
  1713                           	line	220
  1714                           	
  1715  01FA                     l3631:	
  1716                           ;Main.c: 220: T =2;
  1717  01FA  3002               	movlw	low(02h)
  1718  01FB  00B0               	movwf	(_T)
  1719  01FC  3000               	movlw	high(02h)
  1720  01FD  00B1               	movwf	((_T))+1
  1721                           	line	221
  1722                           	
  1723  01FE                     l3633:	
  1724                           ;Main.c: 221: RB3 =0;
  1725  01FE  1186               	bcf	(51/8),(51)&7
  1726  01FF  2A00               	goto	l3635
  1727                           	line	222
  1728                           	
  1729  0200                     l614:	
  1730                           	line	223
  1731                           	
  1732  0200                     l3635:	
  1733                           ;Main.c: 222: }
  1734                           ;Main.c: 223: c =0;
  1735  0200  01F8               	clrf	(_c)
  1736  0201  01F9               	clrf	(_c+1)
  1737                           	line	224
  1738                           ;Main.c: 224: }
  1739  0202  2A08               	goto	l3639
  1740                           	line	225
  1741                           	
  1742  0203                     l613:	
  1743                           	line	227
  1744                           	
  1745  0203                     l3637:	
  1746                           ;Main.c: 225: else
  1747                           ;Main.c: 226: {
  1748                           ;Main.c: 227: laseroff =0;
  1749  0203  1283               	bcf	status, 5	;RP0=0, select bank0
  1750  0204  1303               	bcf	status, 6	;RP1=0, select bank0
  1751  0205  01BC               	clrf	(_laseroff)
  1752  0206  01BD               	clrf	(_laseroff+1)
  1753  0207  2A08               	goto	l3639
  1754                           	line	228
  1755                           	
  1756  0208                     l615:	
  1757                           	line	229
  1758                           	
  1759  0208                     l3639:	
  1760                           ;Main.c: 228: }
  1761                           ;Main.c: 229: OUTPUT();
  1762  0208  2338               	fcall	_OUTPUT
  1763  0209  2A0A               	goto	l3641
  1764                           	line	230
  1765                           	
  1766  020A                     l610:	
  1767                           	line	204
  1768                           	
  1769  020A                     l3641:	
  1770  020A  1283               	bcf	status, 5	;RP0=0, select bank0
  1771  020B  1303               	bcf	status, 6	;RP1=0, select bank0
  1772  020C  1906               	btfsc	(50/8),(50)&7
  1773  020D  2A0F               	goto	u4231
  1774  020E  2A10               	goto	u4230
  1775  020F                     u4231:
  1776  020F  29D1               	goto	l3615
  1777  0210                     u4230:
  1778  0210  2A12               	goto	l3643
  1779                           	
  1780  0211                     l616:	
  1781  0211  2A12               	goto	l3643
  1782                           	line	231
  1783                           	
  1784  0212                     l601:	
  1785                           	line	168
  1786                           	
  1787  0212                     l3643:	
  1788  0212  3004               	movlw	04h
  1789  0213  0634               	xorwf	(_Z),w
  1790  0214  0435               	iorwf	(_Z+1),w
  1791  0215  1903               	skipnz
  1792  0216  2A18               	goto	u4241
  1793  0217  2A19               	goto	u4240
  1794  0218                     u4241:
  1795  0218  2985               	goto	l602
  1796  0219                     u4240:
  1797  0219  2895               	goto	l3487
  1798                           	
  1799  021A                     l617:	
  1800  021A  2895               	goto	l3487
  1801                           	line	232
  1802                           	
  1803  021B                     l618:	
  1804                           	line	29
  1805  021B  2895               	goto	l3487
  1806                           	
  1807  021C                     l619:	
  1808                           	line	233
  1809                           	
  1810  021C                     l620:	
  1811                           	global	start
  1812  021C  2810               	ljmp	start
  1813                           	opt stack 0
  1814                           GLOBAL	__end_of_main
  1815  021D                     	__end_of_main:
  1816 ;; =============== function _main ends ============
  1817                           
  1818                           	signat	_main,88
  1819                           	global	_OUTPUT
  1820                           psect	text416,local,class=CODE,delta=2
  1821                           global __ptext416
  1822  0338                     __ptext416:
  1823                           
  1824 ;; *************** function _OUTPUT *****************
  1825 ;; Defined at:
  1826 ;;		line 208 in file "G:\Active\Projects\TRI002\TRI002-Sensor Embedded\TRIG software PIR modified 21.01.14\main.h"
  1827 ;; Parameters:    Size  Location     Type
  1828 ;;		None
  1829 ;; Auto vars:     Size  Location     Type
  1830 ;;		None
  1831 ;; Return value:  Size  Location     Type
  1832 ;;		None               void
  1833 ;; Registers used:
  1834 ;;		wreg, status,2, status,0
  1835 ;; Tracked objects:
  1836 ;;		On entry : 0/0
  1837 ;;		On exit  : 0/0
  1838 ;;		Unchanged: 0/0
  1839 ;; Data sizes:     COMMON   BANK0   BANK1   BANK2
  1840 ;;      Params:         0       0       0       0
  1841 ;;      Locals:         0       0       0       0
  1842 ;;      Temps:          0       3       0       0
  1843 ;;      Totals:         0       3       0       0
  1844 ;;Total ram usage:        3 bytes
  1845 ;; Hardware stack levels used:    1
  1846 ;; Hardware stack levels required when called:    1
  1847 ;; This function calls:
  1848 ;;		Nothing
  1849 ;; This function is called by:
  1850 ;;		_main
  1851 ;; This function uses a non-reentrant model
  1852 ;;
  1853                           psect	text416
  1854                           	file	"G:\Active\Projects\TRI002\TRI002-Sensor Embedded\TRIG software PIR modified 21.01
                                 .14\main.h"
  1855                           	line	208
  1856                           	global	__size_of_OUTPUT
  1857  009C                     	__size_of_OUTPUT	equ	__end_of_OUTPUT-_OUTPUT
  1858                           	
  1859  0338                     _OUTPUT:	
  1860                           	opt	stack 6
  1861                           ; Regs used in _OUTPUT: [wreg+status,2+status,0]
  1862                           	line	209
  1863                           	
  1864  0338                     l3379:	
  1865                           ;main.h: 209: if(OR ==1)
  1866  0338  3001               	movlw	01h
  1867  0339  1283               	bcf	status, 5	;RP0=0, select bank0
  1868  033A  1303               	bcf	status, 6	;RP1=0, select bank0
  1869  033B  062C               	xorwf	(_OR),w
  1870  033C  042D               	iorwf	(_OR+1),w
  1871  033D  1D03               	skipz
  1872  033E  2B40               	goto	u3801
  1873  033F  2B41               	goto	u3800
  1874  0340                     u3801:
  1875  0340  2B5D               	goto	l3391
  1876  0341                     u3800:
  1877                           	line	211
  1878                           	
  1879  0341                     l3381:	
  1880                           ;main.h: 210: {
  1881                           ;main.h: 211: if(T ==2)
  1882  0341  3002               	movlw	02h
  1883  0342  0630               	xorwf	(_T),w
  1884  0343  0431               	iorwf	(_T+1),w
  1885  0344  1D03               	skipz
  1886  0345  2B47               	goto	u3811
  1887  0346  2B48               	goto	u3810
  1888  0347                     u3811:
  1889  0347  2B4B               	goto	l3385
  1890  0348                     u3810:
  1891                           	line	213
  1892                           	
  1893  0348                     l3383:	
  1894                           ;main.h: 212: {
  1895                           ;main.h: 213: RB1 =0;
  1896  0348  1086               	bcf	(49/8),(49)&7
  1897                           	line	214
  1898                           ;main.h: 214: RA1 =1;
  1899  0349  1485               	bsf	(41/8),(41)&7
  1900  034A  2B4B               	goto	l3385
  1901                           	line	215
  1902                           	
  1903  034B                     l546:	
  1904                           	line	216
  1905                           	
  1906  034B                     l3385:	
  1907                           ;main.h: 215: }
  1908                           ;main.h: 216: if((IN ==1) && (END !=1))
  1909  034B  3001               	movlw	01h
  1910  034C  062A               	xorwf	(_IN),w
  1911  034D  042B               	iorwf	(_IN+1),w
  1912  034E  1D03               	skipz
  1913  034F  2B51               	goto	u3821
  1914  0350  2B52               	goto	u3820
  1915  0351                     u3821:
  1916  0351  2B5D               	goto	l3391
  1917  0352                     u3820:
  1918                           	
  1919  0352                     l3387:	
  1920  0352  3001               	movlw	01h
  1921  0353  0628               	xorwf	(_END),w
  1922  0354  0429               	iorwf	(_END+1),w
  1923  0355  1903               	skipnz
  1924  0356  2B58               	goto	u3831
  1925  0357  2B59               	goto	u3830
  1926  0358                     u3831:
  1927  0358  2B5D               	goto	l3391
  1928  0359                     u3830:
  1929                           	line	218
  1930                           	
  1931  0359                     l3389:	
  1932                           ;main.h: 217: {
  1933                           ;main.h: 218: RB1 =0;
  1934  0359  1086               	bcf	(49/8),(49)&7
  1935                           	line	219
  1936                           ;main.h: 219: RA1 =1;
  1937  035A  1485               	bsf	(41/8),(41)&7
  1938  035B  2B5D               	goto	l3391
  1939                           	line	220
  1940                           	
  1941  035C                     l547:	
  1942  035C  2B5D               	goto	l3391
  1943                           	line	221
  1944                           	
  1945  035D                     l545:	
  1946                           	line	222
  1947                           	
  1948  035D                     l3391:	
  1949                           ;main.h: 220: }
  1950                           ;main.h: 221: }
  1951                           ;main.h: 222: if(AND ==1)
  1952  035D  3001               	movlw	01h
  1953  035E  0624               	xorwf	(_AND),w
  1954  035F  0425               	iorwf	(_AND+1),w
  1955  0360  1D03               	skipz
  1956  0361  2B63               	goto	u3841
  1957  0362  2B64               	goto	u3840
  1958  0363                     u3841:
  1959  0363  2BA4               	goto	l3413
  1960  0364                     u3840:
  1961                           	line	224
  1962                           	
  1963  0364                     l3393:	
  1964                           ;main.h: 223: {
  1965                           ;main.h: 224: if((T ==2) && ((IN ==1)|| ( RB0 ==0)) && (END !=1))
  1966  0364  3002               	movlw	02h
  1967  0365  0630               	xorwf	(_T),w
  1968  0366  0431               	iorwf	(_T+1),w
  1969  0367  1D03               	skipz
  1970  0368  2B6A               	goto	u3851
  1971  0369  2B6B               	goto	u3850
  1972  036A                     u3851:
  1973  036A  2B86               	goto	l3403
  1974  036B                     u3850:
  1975                           	
  1976  036B                     l3395:	
  1977  036B  3001               	movlw	01h
  1978  036C  062A               	xorwf	(_IN),w
  1979  036D  042B               	iorwf	(_IN+1),w
  1980  036E  1903               	skipnz
  1981  036F  2B71               	goto	u3861
  1982  0370  2B72               	goto	u3860
  1983  0371                     u3861:
  1984  0371  2B77               	goto	l3399
  1985  0372                     u3860:
  1986                           	
  1987  0372                     l3397:	
  1988  0372  1806               	btfsc	(48/8),(48)&7
  1989  0373  2B75               	goto	u3871
  1990  0374  2B76               	goto	u3870
  1991  0375                     u3871:
  1992  0375  2B86               	goto	l3403
  1993  0376                     u3870:
  1994  0376  2B77               	goto	l3399
  1995                           	
  1996  0377                     l551:	
  1997                           	
  1998  0377                     l3399:	
  1999  0377  3001               	movlw	01h
  2000  0378  0628               	xorwf	(_END),w
  2001  0379  0429               	iorwf	(_END+1),w
  2002  037A  1903               	skipnz
  2003  037B  2B7D               	goto	u3881
  2004  037C  2B7E               	goto	u3880
  2005  037D                     u3881:
  2006  037D  2B86               	goto	l3403
  2007  037E                     u3880:
  2008                           	line	226
  2009                           	
  2010  037E                     l3401:	
  2011                           ;main.h: 225: {
  2012                           ;main.h: 226: TRISB1 =0;
  2013  037E  1683               	bsf	status, 5	;RP0=1, select bank1
  2014  037F  1303               	bcf	status, 6	;RP1=0, select bank1
  2015  0380  1086               	bcf	(1073/8)^080h,(1073)&7
  2016                           	line	227
  2017                           ;main.h: 227: RB1 =0;
  2018  0381  1283               	bcf	status, 5	;RP0=0, select bank0
  2019  0382  1303               	bcf	status, 6	;RP1=0, select bank0
  2020  0383  1086               	bcf	(49/8),(49)&7
  2021                           	line	228
  2022                           ;main.h: 228: RA1 =1;
  2023  0384  1485               	bsf	(41/8),(41)&7
  2024  0385  2B86               	goto	l3403
  2025                           	line	229
  2026                           	
  2027  0386                     l549:	
  2028                           	line	230
  2029                           	
  2030  0386                     l3403:	
  2031                           ;main.h: 229: }
  2032                           ;main.h: 230: if((END ==1) && (T ==2))
  2033  0386  3001               	movlw	01h
  2034  0387  0628               	xorwf	(_END),w
  2035  0388  0429               	iorwf	(_END+1),w
  2036  0389  1D03               	skipz
  2037  038A  2B8C               	goto	u3891
  2038  038B  2B8D               	goto	u3890
  2039  038C                     u3891:
  2040  038C  2B9B               	goto	l552
  2041  038D                     u3890:
  2042                           	
  2043  038D                     l3405:	
  2044  038D  3002               	movlw	02h
  2045  038E  0630               	xorwf	(_T),w
  2046  038F  0431               	iorwf	(_T+1),w
  2047  0390  1D03               	skipz
  2048  0391  2B93               	goto	u3901
  2049  0392  2B94               	goto	u3900
  2050  0393                     u3901:
  2051  0393  2B9B               	goto	l552
  2052  0394                     u3900:
  2053                           	line	232
  2054                           	
  2055  0394                     l3407:	
  2056                           ;main.h: 231: {
  2057                           ;main.h: 232: TRISB1 =0;
  2058  0394  1683               	bsf	status, 5	;RP0=1, select bank1
  2059  0395  1303               	bcf	status, 6	;RP1=0, select bank1
  2060  0396  1086               	bcf	(1073/8)^080h,(1073)&7
  2061                           	line	233
  2062                           ;main.h: 233: RB1 =0;
  2063  0397  1283               	bcf	status, 5	;RP0=0, select bank0
  2064  0398  1303               	bcf	status, 6	;RP1=0, select bank0
  2065  0399  1086               	bcf	(49/8),(49)&7
  2066                           	line	234
  2067                           ;main.h: 234: RA1 =1;
  2068  039A  1485               	bsf	(41/8),(41)&7
  2069                           	line	235
  2070                           	
  2071  039B                     l552:	
  2072                           	line	236
  2073                           ;main.h: 235: }
  2074                           ;main.h: 236: if(RB0 ==1)
  2075  039B  1C06               	btfss	(48/8),(48)&7
  2076  039C  2B9E               	goto	u3911
  2077  039D  2B9F               	goto	u3910
  2078  039E                     u3911:
  2079  039E  2BA4               	goto	l3413
  2080  039F                     u3910:
  2081                           	line	238
  2082                           	
  2083  039F                     l3409:	
  2084                           ;main.h: 237: {
  2085                           ;main.h: 238: IN =0;
  2086  039F  01AA               	clrf	(_IN)
  2087  03A0  01AB               	clrf	(_IN+1)
  2088                           	line	239
  2089                           	
  2090  03A1                     l3411:	
  2091                           ;main.h: 239: RB1 =1;
  2092  03A1  1486               	bsf	(49/8),(49)&7
  2093  03A2  2BA4               	goto	l3413
  2094                           	line	240
  2095                           	
  2096  03A3                     l553:	
  2097  03A3  2BA4               	goto	l3413
  2098                           	line	241
  2099                           	
  2100  03A4                     l548:	
  2101                           	line	242
  2102                           	
  2103  03A4                     l3413:	
  2104                           ;main.h: 240: }
  2105                           ;main.h: 241: }
  2106                           ;main.h: 242: if(Z ==4)
  2107  03A4  3004               	movlw	04h
  2108  03A5  0634               	xorwf	(_Z),w
  2109  03A6  0435               	iorwf	(_Z+1),w
  2110  03A7  1D03               	skipz
  2111  03A8  2BAA               	goto	u3921
  2112  03A9  2BAB               	goto	u3920
  2113  03AA                     u3921:
  2114  03AA  2BD3               	goto	l558
  2115  03AB                     u3920:
  2116                           	line	244
  2117                           	
  2118  03AB                     l3415:	
  2119                           ;main.h: 243: {
  2120                           ;main.h: 244: if(T ==2)
  2121  03AB  3002               	movlw	02h
  2122  03AC  0630               	xorwf	(_T),w
  2123  03AD  0431               	iorwf	(_T+1),w
  2124  03AE  1D03               	skipz
  2125  03AF  2BB1               	goto	u3931
  2126  03B0  2BB2               	goto	u3930
  2127  03B1                     u3931:
  2128  03B1  2BD3               	goto	l558
  2129  03B2                     u3930:
  2130                           	line	246
  2131                           	
  2132  03B2                     l3417:	
  2133                           ;main.h: 245: {
  2134                           ;main.h: 246: if(laseroff ==0)
  2135  03B2  083D               	movf	((_laseroff+1)),w
  2136  03B3  043C               	iorwf	((_laseroff)),w
  2137  03B4  1D03               	skipz
  2138  03B5  2BB7               	goto	u3941
  2139  03B6  2BB8               	goto	u3940
  2140  03B7                     u3941:
  2141  03B7  2BD3               	goto	l558
  2142  03B8                     u3940:
  2143                           	line	248
  2144                           	
  2145  03B8                     l3419:	
  2146                           ;main.h: 247: {
  2147                           ;main.h: 248: if(RB3 ==0)
  2148  03B8  1986               	btfsc	(51/8),(51)&7
  2149  03B9  2BBB               	goto	u3951
  2150  03BA  2BBC               	goto	u3950
  2151  03BB                     u3951:
  2152  03BB  2BD3               	goto	l558
  2153  03BC                     u3950:
  2154                           	line	250
  2155                           	
  2156  03BC                     l3421:	
  2157                           ;main.h: 249: {
  2158                           ;main.h: 250: _delay((unsigned long)((200)*(8000000/4000.0)));
  2159                           	opt asmopt_off
  2160  03BC  3003               movlw  3
  2161  03BD  00C0               movwf	((??_OUTPUT+0)+0+2),f
  2162  03BE  3008               movlw	8
  2163  03BF  00BF               movwf	((??_OUTPUT+0)+0+1),f
  2164  03C0  3078               	movlw	120
  2165  03C1  00BE               movwf	((??_OUTPUT+0)+0),f
  2166  03C2                     u4257:
  2167  03C2  0BBE               	decfsz	((??_OUTPUT+0)+0),f
  2168  03C3  2BC2               	goto	u4257
  2169  03C4  0BBF               	decfsz	((??_OUTPUT+0)+0+1),f
  2170  03C5  2BC2               	goto	u4257
  2171  03C6  0BC0               	decfsz	((??_OUTPUT+0)+0+2),f
  2172  03C7  2BC2               	goto	u4257
  2173                           opt asmopt_on
  2174                           
  2175                           	line	251
  2176                           	
  2177  03C8                     l3423:	
  2178                           ;main.h: 251: RB3 =1;
  2179  03C8  1283               	bcf	status, 5	;RP0=0, select bank0
  2180  03C9  1303               	bcf	status, 6	;RP1=0, select bank0
  2181  03CA  1586               	bsf	(51/8),(51)&7
  2182                           	line	252
  2183                           ;main.h: 252: laseroff =1;
  2184  03CB  3001               	movlw	low(01h)
  2185  03CC  00BC               	movwf	(_laseroff)
  2186  03CD  3000               	movlw	high(01h)
  2187  03CE  00BD               	movwf	((_laseroff))+1
  2188  03CF  2BD3               	goto	l558
  2189                           	line	253
  2190                           	
  2191  03D0                     l557:	
  2192  03D0  2BD3               	goto	l558
  2193                           	line	254
  2194                           	
  2195  03D1                     l556:	
  2196  03D1  2BD3               	goto	l558
  2197                           	line	255
  2198                           	
  2199  03D2                     l555:	
  2200  03D2  2BD3               	goto	l558
  2201                           	line	256
  2202                           	
  2203  03D3                     l554:	
  2204                           	line	257
  2205                           	
  2206  03D3                     l558:	
  2207  03D3  0008               	return
  2208                           	opt stack 0
  2209                           GLOBAL	__end_of_OUTPUT
  2210  03D4                     	__end_of_OUTPUT:
  2211 ;; =============== function _OUTPUT ends ============
  2212                           
  2213                           	signat	_OUTPUT,88
  2214                           	global	_PING
  2215                           psect	text417,local,class=CODE,delta=2
  2216                           global __ptext417
  2217  021D                     __ptext417:
  2218                           
  2219 ;; *************** function _PING *****************
  2220 ;; Defined at:
  2221 ;;		line 99 in file "G:\Active\Projects\TRI002\TRI002-Sensor Embedded\TRIG software PIR modified 21.01.14\main.h"
  2222 ;; Parameters:    Size  Location     Type
  2223 ;;		None
  2224 ;; Auto vars:     Size  Location     Type
  2225 ;;  a               2    4[COMMON] unsigned int 
  2226 ;; Return value:  Size  Location     Type
  2227 ;;                  2  521[COMMON] int 
  2228 ;; Registers used:
  2229 ;;		wreg, status,2, status,0, pclath, cstack
  2230 ;; Tracked objects:
  2231 ;;		On entry : 0/0
  2232 ;;		On exit  : 0/0
  2233 ;;		Unchanged: 0/0
  2234 ;; Data sizes:     COMMON   BANK0   BANK1   BANK2
  2235 ;;      Params:         0       0       0       0
  2236 ;;      Locals:         2       0       0       0
  2237 ;;      Temps:          0       3       0       0
  2238 ;;      Totals:         2       3       0       0
  2239 ;;Total ram usage:        5 bytes
  2240 ;; Hardware stack levels used:    1
  2241 ;; Hardware stack levels required when called:    2
  2242 ;; This function calls:
  2243 ;;		_delay2
  2244 ;;		_delay1
  2245 ;; This function is called by:
  2246 ;;		_main
  2247 ;; This function uses a non-reentrant model
  2248 ;;
  2249                           psect	text417
  2250                           	file	"G:\Active\Projects\TRI002\TRI002-Sensor Embedded\TRIG software PIR modified 21.01
                                 .14\main.h"
  2251                           	line	99
  2252                           	global	__size_of_PING
  2253  011B                     	__size_of_PING	equ	__end_of_PING-_PING
  2254                           	
  2255  021D                     _PING:	
  2256                           	opt	stack 5
  2257                           ; Regs used in _PING: [wreg+status,2+status,0+pclath+cstack]
  2258                           	line	100
  2259                           	
  2260  021D                     l3269:	
  2261                           ;main.h: 100: unsigned int a = 0;
  2262  021D  01F4               	clrf	(PING@a)
  2263  021E  01F5               	clrf	(PING@a+1)
  2264                           	line	101
  2265                           ;main.h: 101: Y =0;
  2266  021F  1283               	bcf	status, 5	;RP0=0, select bank0
  2267  0220  1303               	bcf	status, 6	;RP1=0, select bank0
  2268  0221  01B2               	clrf	(_Y)
  2269  0222  01B3               	clrf	(_Y+1)
  2270                           	line	102
  2271                           ;main.h: 102: c =0;
  2272  0223  01F8               	clrf	(_c)
  2273  0224  01F9               	clrf	(_c+1)
  2274                           	line	103
  2275                           	
  2276  0225                     l3271:	
  2277                           ;main.h: 103: RA1 =0;
  2278  0225  1085               	bcf	(41/8),(41)&7
  2279                           	line	104
  2280                           	
  2281  0226                     l3273:	
  2282                           ;main.h: 104: TRISB1 =1;
  2283  0226  1683               	bsf	status, 5	;RP0=1, select bank1
  2284  0227  1303               	bcf	status, 6	;RP1=0, select bank1
  2285  0228  1486               	bsf	(1073/8)^080h,(1073)&7
  2286                           	line	105
  2287                           ;main.h: 105: while(Y ==0)
  2288  0229  2A40               	goto	l3277
  2289                           	
  2290  022A                     l523:	
  2291                           	line	107
  2292                           ;main.h: 106: {
  2293                           ;main.h: 107: if(RB1 ==0)
  2294  022A  1886               	btfsc	(49/8),(49)&7
  2295  022B  2A2D               	goto	u3681
  2296  022C  2A2E               	goto	u3680
  2297  022D                     u3681:
  2298  022D  2A40               	goto	l3277
  2299  022E                     u3680:
  2300                           	line	109
  2301                           	
  2302  022E                     l3275:	
  2303                           ;main.h: 108: {
  2304                           ;main.h: 109: Y =1;
  2305  022E  3001               	movlw	low(01h)
  2306  022F  00B2               	movwf	(_Y)
  2307  0230  3000               	movlw	high(01h)
  2308  0231  00B3               	movwf	((_Y))+1
  2309                           	line	110
  2310                           ;main.h: 110: c++;
  2311  0232  3001               	movlw	low(01h)
  2312  0233  07F8               	addwf	(_c),f
  2313  0234  1803               	skipnc
  2314  0235  0AF9               	incf	(_c+1),f
  2315  0236  3000               	movlw	high(01h)
  2316  0237  07F9               	addwf	(_c+1),f
  2317                           	line	111
  2318                           ;main.h: 111: while(RB1 ==0);
  2319  0238  2A39               	goto	l525
  2320                           	
  2321  0239                     l526:	
  2322                           	
  2323  0239                     l525:	
  2324  0239  1C86               	btfss	(49/8),(49)&7
  2325  023A  2A3C               	goto	u3691
  2326  023B  2A3D               	goto	u3690
  2327  023C                     u3691:
  2328  023C  2A39               	goto	l525
  2329  023D                     u3690:
  2330  023D  2A40               	goto	l3277
  2331                           	
  2332  023E                     l527:	
  2333  023E  2A40               	goto	l3277
  2334                           	line	112
  2335                           	
  2336  023F                     l524:	
  2337  023F  2A40               	goto	l3277
  2338                           	line	113
  2339                           	
  2340  0240                     l522:	
  2341                           	line	105
  2342                           	
  2343  0240                     l3277:	
  2344  0240  1283               	bcf	status, 5	;RP0=0, select bank0
  2345  0241  0833               	movf	(_Y+1),w
  2346  0242  0432               	iorwf	(_Y),w
  2347  0243  1903               	skipnz
  2348  0244  2A46               	goto	u3701
  2349  0245  2A47               	goto	u3700
  2350  0246                     u3701:
  2351  0246  2A2A               	goto	l523
  2352  0247                     u3700:
  2353  0247  2A5D               	goto	l529
  2354                           	
  2355  0248                     l528:	
  2356                           	line	115
  2357                           ;main.h: 112: }
  2358                           ;main.h: 113: }
  2359                           ;main.h: 115: while(a <5120)
  2360  0248  2A5D               	goto	l529
  2361                           	
  2362  0249                     l530:	
  2363                           	line	117
  2364                           ;main.h: 116: {
  2365                           ;main.h: 117: if(RB1 ==0)
  2366  0249  1886               	btfsc	(49/8),(49)&7
  2367  024A  2A4C               	goto	u3711
  2368  024B  2A4D               	goto	u3710
  2369  024C                     u3711:
  2370  024C  2A57               	goto	l531
  2371  024D                     u3710:
  2372                           	line	119
  2373                           	
  2374  024D                     l3279:	
  2375                           ;main.h: 118: {
  2376                           ;main.h: 119: c++;
  2377  024D  3001               	movlw	low(01h)
  2378  024E  07F8               	addwf	(_c),f
  2379  024F  1803               	skipnc
  2380  0250  0AF9               	incf	(_c+1),f
  2381  0251  3000               	movlw	high(01h)
  2382  0252  07F9               	addwf	(_c+1),f
  2383                           	line	120
  2384                           ;main.h: 120: a =5500;
  2385  0253  307C               	movlw	low(0157Ch)
  2386  0254  00F4               	movwf	(PING@a)
  2387  0255  3015               	movlw	high(0157Ch)
  2388  0256  00F5               	movwf	((PING@a))+1
  2389                           	line	121
  2390                           	
  2391  0257                     l531:	
  2392                           	line	122
  2393                           ;main.h: 121: }
  2394                           ;main.h: 122: a++;
  2395  0257  3001               	movlw	low(01h)
  2396  0258  07F4               	addwf	(PING@a),f
  2397  0259  1803               	skipnc
  2398  025A  0AF5               	incf	(PING@a+1),f
  2399  025B  3000               	movlw	high(01h)
  2400  025C  07F5               	addwf	(PING@a+1),f
  2401                           	line	123
  2402                           	
  2403  025D                     l529:	
  2404                           	line	115
  2405  025D  3014               	movlw	high(01400h)
  2406  025E  0275               	subwf	(PING@a+1),w
  2407  025F  3000               	movlw	low(01400h)
  2408  0260  1903               	skipnz
  2409  0261  0274               	subwf	(PING@a),w
  2410  0262  1C03               	skipc
  2411  0263  2A65               	goto	u3721
  2412  0264  2A66               	goto	u3720
  2413  0265                     u3721:
  2414  0265  2A49               	goto	l530
  2415  0266                     u3720:
  2416  0266  2A67               	goto	l3281
  2417                           	
  2418  0267                     l532:	
  2419                           	line	124
  2420                           	
  2421  0267                     l3281:	
  2422                           ;main.h: 123: }
  2423                           ;main.h: 124: if(c ==1)
  2424  0267  3001               	movlw	01h
  2425  0268  0678               	xorwf	(_c),w
  2426  0269  0479               	iorwf	(_c+1),w
  2427  026A  1D03               	skipz
  2428  026B  2A6D               	goto	u3731
  2429  026C  2A6E               	goto	u3730
  2430  026D                     u3731:
  2431  026D  2A75               	goto	l3287
  2432  026E                     u3730:
  2433                           	line	126
  2434                           	
  2435  026E                     l3283:	
  2436                           ;main.h: 125: {
  2437                           ;main.h: 126: AND =0;
  2438  026E  01A4               	clrf	(_AND)
  2439  026F  01A5               	clrf	(_AND+1)
  2440                           	line	127
  2441                           	
  2442  0270                     l3285:	
  2443                           ;main.h: 127: OR =1;
  2444  0270  3001               	movlw	low(01h)
  2445  0271  00AC               	movwf	(_OR)
  2446  0272  3000               	movlw	high(01h)
  2447  0273  00AD               	movwf	((_OR))+1
  2448  0274  2A75               	goto	l3287
  2449                           	line	128
  2450                           	
  2451  0275                     l533:	
  2452                           	line	129
  2453                           	
  2454  0275                     l3287:	
  2455                           ;main.h: 128: }
  2456                           ;main.h: 129: if(c ==2)
  2457  0275  3002               	movlw	02h
  2458  0276  0678               	xorwf	(_c),w
  2459  0277  0479               	iorwf	(_c+1),w
  2460  0278  1D03               	skipz
  2461  0279  2A7B               	goto	u3741
  2462  027A  2A7C               	goto	u3740
  2463  027B                     u3741:
  2464  027B  2A83               	goto	l3293
  2465  027C                     u3740:
  2466                           	line	131
  2467                           	
  2468  027C                     l3289:	
  2469                           ;main.h: 130: {
  2470                           ;main.h: 131: AND =1;
  2471  027C  3001               	movlw	low(01h)
  2472  027D  00A4               	movwf	(_AND)
  2473  027E  3000               	movlw	high(01h)
  2474  027F  00A5               	movwf	((_AND))+1
  2475                           	line	132
  2476                           	
  2477  0280                     l3291:	
  2478                           ;main.h: 132: OR =0;
  2479  0280  01AC               	clrf	(_OR)
  2480  0281  01AD               	clrf	(_OR+1)
  2481  0282  2A83               	goto	l3293
  2482                           	line	133
  2483                           	
  2484  0283                     l534:	
  2485                           	line	134
  2486                           	
  2487  0283                     l3293:	
  2488                           ;main.h: 133: }
  2489                           ;main.h: 134: if(AND ==1)
  2490  0283  3001               	movlw	01h
  2491  0284  0624               	xorwf	(_AND),w
  2492  0285  0425               	iorwf	(_AND+1),w
  2493  0286  1D03               	skipz
  2494  0287  2A89               	goto	u3751
  2495  0288  2A8A               	goto	u3750
  2496  0289                     u3751:
  2497  0289  2AB7               	goto	l3319
  2498  028A                     u3750:
  2499                           	line	137
  2500                           	
  2501  028A                     l3295:	
  2502                           ;main.h: 135: {
  2503                           ;main.h: 137: TRISB0 =0;
  2504  028A  1683               	bsf	status, 5	;RP0=1, select bank1
  2505  028B  1303               	bcf	status, 6	;RP1=0, select bank1
  2506  028C  1006               	bcf	(1072/8)^080h,(1072)&7
  2507                           	line	138
  2508                           ;main.h: 138: RB0 =0;
  2509  028D  1283               	bcf	status, 5	;RP0=0, select bank0
  2510  028E  1303               	bcf	status, 6	;RP1=0, select bank0
  2511  028F  1006               	bcf	(48/8),(48)&7
  2512                           	line	139
  2513                           	
  2514  0290                     l3297:	
  2515                           ;main.h: 139: delay2();
  2516  0290  24A1               	fcall	_delay2
  2517                           	line	140
  2518                           	
  2519  0291                     l3299:	
  2520                           ;main.h: 140: RB0 =1;
  2521  0291  1283               	bcf	status, 5	;RP0=0, select bank0
  2522  0292  1303               	bcf	status, 6	;RP1=0, select bank0
  2523  0293  1406               	bsf	(48/8),(48)&7
  2524                           	line	141
  2525                           ;main.h: 141: delay2();
  2526  0294  24A1               	fcall	_delay2
  2527                           	line	142
  2528                           	
  2529  0295                     l3301:	
  2530                           ;main.h: 142: RB0 =0;
  2531  0295  1283               	bcf	status, 5	;RP0=0, select bank0
  2532  0296  1303               	bcf	status, 6	;RP1=0, select bank0
  2533  0297  1006               	bcf	(48/8),(48)&7
  2534                           	line	143
  2535                           ;main.h: 143: delay2();
  2536  0298  24A1               	fcall	_delay2
  2537                           	line	144
  2538                           	
  2539  0299                     l3303:	
  2540                           ;main.h: 144: RB0 =1;
  2541  0299  1283               	bcf	status, 5	;RP0=0, select bank0
  2542  029A  1303               	bcf	status, 6	;RP1=0, select bank0
  2543  029B  1406               	bsf	(48/8),(48)&7
  2544                           	line	145
  2545                           	
  2546  029C                     l3305:	
  2547                           ;main.h: 145: TRISB0 =1;
  2548  029C  1683               	bsf	status, 5	;RP0=1, select bank1
  2549  029D  1303               	bcf	status, 6	;RP1=0, select bank1
  2550  029E  1406               	bsf	(1072/8)^080h,(1072)&7
  2551                           	line	146
  2552                           	
  2553  029F                     l3307:	
  2554                           ;main.h: 146: RA1 =1;
  2555  029F  1283               	bcf	status, 5	;RP0=0, select bank0
  2556  02A0  1303               	bcf	status, 6	;RP1=0, select bank0
  2557  02A1  1485               	bsf	(41/8),(41)&7
  2558                           	line	147
  2559                           ;main.h: 147: delay1();
  2560  02A2  245D               	fcall	_delay1
  2561                           	line	148
  2562                           	
  2563  02A3                     l3309:	
  2564                           ;main.h: 148: RA1 =0;
  2565  02A3  1283               	bcf	status, 5	;RP0=0, select bank0
  2566  02A4  1303               	bcf	status, 6	;RP1=0, select bank0
  2567  02A5  1085               	bcf	(41/8),(41)&7
  2568                           	line	149
  2569                           ;main.h: 149: delay1();
  2570  02A6  245D               	fcall	_delay1
  2571                           	line	150
  2572                           	
  2573  02A7                     l3311:	
  2574                           ;main.h: 150: RA1 =1;
  2575  02A7  1283               	bcf	status, 5	;RP0=0, select bank0
  2576  02A8  1303               	bcf	status, 6	;RP1=0, select bank0
  2577  02A9  1485               	bsf	(41/8),(41)&7
  2578                           	line	151
  2579                           ;main.h: 151: delay1();
  2580  02AA  245D               	fcall	_delay1
  2581                           	line	152
  2582                           	
  2583  02AB                     l3313:	
  2584                           ;main.h: 152: RA1 =0;
  2585  02AB  1283               	bcf	status, 5	;RP0=0, select bank0
  2586  02AC  1303               	bcf	status, 6	;RP1=0, select bank0
  2587  02AD  1085               	bcf	(41/8),(41)&7
  2588                           	line	153
  2589                           ;main.h: 153: delay1();
  2590  02AE  245D               	fcall	_delay1
  2591                           	line	154
  2592                           	
  2593  02AF                     l3315:	
  2594                           ;main.h: 154: RA1 =1;
  2595  02AF  1283               	bcf	status, 5	;RP0=0, select bank0
  2596  02B0  1303               	bcf	status, 6	;RP1=0, select bank0
  2597  02B1  1485               	bsf	(41/8),(41)&7
  2598                           	line	155
  2599                           ;main.h: 155: delay1();
  2600  02B2  245D               	fcall	_delay1
  2601                           	line	156
  2602                           	
  2603  02B3                     l3317:	
  2604                           ;main.h: 156: RA1 =0;
  2605  02B3  1283               	bcf	status, 5	;RP0=0, select bank0
  2606  02B4  1303               	bcf	status, 6	;RP1=0, select bank0
  2607  02B5  1085               	bcf	(41/8),(41)&7
  2608  02B6  2AB7               	goto	l3319
  2609                           	line	158
  2610                           	
  2611  02B7                     l535:	
  2612                           	line	159
  2613                           	
  2614  02B7                     l3319:	
  2615                           ;main.h: 158: }
  2616                           ;main.h: 159: if(OR ==1)
  2617  02B7  3001               	movlw	01h
  2618  02B8  062C               	xorwf	(_OR),w
  2619  02B9  042D               	iorwf	(_OR+1),w
  2620  02BA  1D03               	skipz
  2621  02BB  2ABD               	goto	u3761
  2622  02BC  2ABE               	goto	u3760
  2623  02BD                     u3761:
  2624  02BD  2AD5               	goto	l3335
  2625  02BE                     u3760:
  2626                           	line	161
  2627                           	
  2628  02BE                     l3321:	
  2629                           ;main.h: 160: {
  2630                           ;main.h: 161: delay1();
  2631  02BE  245D               	fcall	_delay1
  2632                           	line	162
  2633                           	
  2634  02BF                     l3323:	
  2635                           ;main.h: 162: TRISB0 =0;
  2636  02BF  1683               	bsf	status, 5	;RP0=1, select bank1
  2637  02C0  1303               	bcf	status, 6	;RP1=0, select bank1
  2638  02C1  1006               	bcf	(1072/8)^080h,(1072)&7
  2639                           	line	163
  2640                           	
  2641  02C2                     l3325:	
  2642                           ;main.h: 163: RB0 =0;
  2643  02C2  1283               	bcf	status, 5	;RP0=0, select bank0
  2644  02C3  1303               	bcf	status, 6	;RP1=0, select bank0
  2645  02C4  1006               	bcf	(48/8),(48)&7
  2646                           	line	164
  2647                           ;main.h: 164: delay2();
  2648  02C5  24A1               	fcall	_delay2
  2649                           	line	165
  2650                           	
  2651  02C6                     l3327:	
  2652                           ;main.h: 165: RB0 =1;
  2653  02C6  1283               	bcf	status, 5	;RP0=0, select bank0
  2654  02C7  1303               	bcf	status, 6	;RP1=0, select bank0
  2655  02C8  1406               	bsf	(48/8),(48)&7
  2656                           	line	166
  2657                           	
  2658  02C9                     l3329:	
  2659                           ;main.h: 166: TRISB0 =1;
  2660  02C9  1683               	bsf	status, 5	;RP0=1, select bank1
  2661  02CA  1303               	bcf	status, 6	;RP1=0, select bank1
  2662  02CB  1406               	bsf	(1072/8)^080h,(1072)&7
  2663                           	line	167
  2664                           	
  2665  02CC                     l3331:	
  2666                           ;main.h: 167: RA1 =1;
  2667  02CC  1283               	bcf	status, 5	;RP0=0, select bank0
  2668  02CD  1303               	bcf	status, 6	;RP1=0, select bank0
  2669  02CE  1485               	bsf	(41/8),(41)&7
  2670                           	line	168
  2671                           ;main.h: 168: delay1();
  2672  02CF  245D               	fcall	_delay1
  2673                           	line	169
  2674                           ;main.h: 169: delay1();
  2675  02D0  245D               	fcall	_delay1
  2676                           	line	170
  2677                           	
  2678  02D1                     l3333:	
  2679                           ;main.h: 170: RA1 =0;
  2680  02D1  1283               	bcf	status, 5	;RP0=0, select bank0
  2681  02D2  1303               	bcf	status, 6	;RP1=0, select bank0
  2682  02D3  1085               	bcf	(41/8),(41)&7
  2683  02D4  2AD5               	goto	l3335
  2684                           	line	171
  2685                           	
  2686  02D5                     l536:	
  2687                           	line	172
  2688                           	
  2689  02D5                     l3335:	
  2690                           ;main.h: 171: }
  2691                           ;main.h: 172: TRISB1 =0;
  2692  02D5  1683               	bsf	status, 5	;RP0=1, select bank1
  2693  02D6  1303               	bcf	status, 6	;RP1=0, select bank1
  2694  02D7  1086               	bcf	(1073/8)^080h,(1073)&7
  2695                           	line	173
  2696                           	
  2697  02D8                     l3337:	
  2698                           ;main.h: 173: RB1 =0;
  2699  02D8  1283               	bcf	status, 5	;RP0=0, select bank0
  2700  02D9  1303               	bcf	status, 6	;RP1=0, select bank0
  2701  02DA  1086               	bcf	(49/8),(49)&7
  2702                           	line	174
  2703                           	
  2704  02DB                     l3339:	
  2705                           ;main.h: 174: a =0;
  2706  02DB  01F4               	clrf	(PING@a)
  2707  02DC  01F5               	clrf	(PING@a+1)
  2708                           	line	175
  2709                           	
  2710  02DD                     l3341:	
  2711                           ;main.h: 175: delay1();
  2712  02DD  245D               	fcall	_delay1
  2713                           	line	176
  2714                           	
  2715  02DE                     l3343:	
  2716                           ;main.h: 176: delay1();
  2717  02DE  245D               	fcall	_delay1
  2718                           	line	177
  2719                           	
  2720  02DF                     l3345:	
  2721                           ;main.h: 177: TRISB0 =1;
  2722  02DF  1683               	bsf	status, 5	;RP0=1, select bank1
  2723  02E0  1303               	bcf	status, 6	;RP1=0, select bank1
  2724  02E1  1406               	bsf	(1072/8)^080h,(1072)&7
  2725                           	line	178
  2726                           	
  2727  02E2                     l3347:	
  2728                           ;main.h: 178: END =0;
  2729  02E2  1283               	bcf	status, 5	;RP0=0, select bank0
  2730  02E3  1303               	bcf	status, 6	;RP1=0, select bank0
  2731  02E4  01A8               	clrf	(_END)
  2732  02E5  01A9               	clrf	(_END+1)
  2733                           	line	179
  2734                           ;main.h: 179: while(a<15000)
  2735  02E6  2AFB               	goto	l537
  2736                           	
  2737  02E7                     l538:	
  2738                           	line	181
  2739                           ;main.h: 180: {
  2740                           ;main.h: 181: if(RB0 ==0)
  2741  02E7  1806               	btfsc	(48/8),(48)&7
  2742  02E8  2AEA               	goto	u3771
  2743  02E9  2AEB               	goto	u3770
  2744  02EA                     u3771:
  2745  02EA  2AF5               	goto	l539
  2746  02EB                     u3770:
  2747                           	line	183
  2748                           	
  2749  02EB                     l3349:	
  2750                           ;main.h: 182: {
  2751                           ;main.h: 183: c++;
  2752  02EB  3001               	movlw	low(01h)
  2753  02EC  07F8               	addwf	(_c),f
  2754  02ED  1803               	skipnc
  2755  02EE  0AF9               	incf	(_c+1),f
  2756  02EF  3000               	movlw	high(01h)
  2757  02F0  07F9               	addwf	(_c+1),f
  2758                           	line	184
  2759                           ;main.h: 184: a =20000;
  2760  02F1  3020               	movlw	low(04E20h)
  2761  02F2  00F4               	movwf	(PING@a)
  2762  02F3  304E               	movlw	high(04E20h)
  2763  02F4  00F5               	movwf	((PING@a))+1
  2764                           	line	185
  2765                           	
  2766  02F5                     l539:	
  2767                           	line	186
  2768                           ;main.h: 185: }
  2769                           ;main.h: 186: a++;
  2770  02F5  3001               	movlw	low(01h)
  2771  02F6  07F4               	addwf	(PING@a),f
  2772  02F7  1803               	skipnc
  2773  02F8  0AF5               	incf	(PING@a+1),f
  2774  02F9  3000               	movlw	high(01h)
  2775  02FA  07F5               	addwf	(PING@a+1),f
  2776                           	line	187
  2777                           	
  2778  02FB                     l537:	
  2779                           	line	179
  2780  02FB  303A               	movlw	high(03A98h)
  2781  02FC  0275               	subwf	(PING@a+1),w
  2782  02FD  3098               	movlw	low(03A98h)
  2783  02FE  1903               	skipnz
  2784  02FF  0274               	subwf	(PING@a),w
  2785  0300  1C03               	skipc
  2786  0301  2B03               	goto	u3781
  2787  0302  2B04               	goto	u3780
  2788  0303                     u3781:
  2789  0303  2AE7               	goto	l538
  2790  0304                     u3780:
  2791  0304  2B05               	goto	l3351
  2792                           	
  2793  0305                     l540:	
  2794                           	line	188
  2795                           	
  2796  0305                     l3351:	
  2797                           ;main.h: 187: }
  2798                           ;main.h: 188: if(a <16000)
  2799  0305  303E               	movlw	high(03E80h)
  2800  0306  0275               	subwf	(PING@a+1),w
  2801  0307  3080               	movlw	low(03E80h)
  2802  0308  1903               	skipnz
  2803  0309  0274               	subwf	(PING@a),w
  2804  030A  1803               	skipnc
  2805  030B  2B0D               	goto	u3791
  2806  030C  2B0E               	goto	u3790
  2807  030D                     u3791:
  2808  030D  2B37               	goto	l542
  2809  030E                     u3790:
  2810                           	line	190
  2811                           	
  2812  030E                     l3353:	
  2813                           ;main.h: 189: {
  2814                           ;main.h: 190: _delay((unsigned long)((250)*(8000000/4000.0)));
  2815                           	opt asmopt_off
  2816  030E  3003               movlw  3
  2817  030F  00C0               movwf	((??_PING+0)+0+2),f
  2818  0310  308A               movlw	138
  2819  0311  00BF               movwf	((??_PING+0)+0+1),f
  2820  0312  3056               	movlw	86
  2821  0313  00BE               movwf	((??_PING+0)+0),f
  2822  0314                     u4267:
  2823  0314  0BBE               	decfsz	((??_PING+0)+0),f
  2824  0315  2B14               	goto	u4267
  2825  0316  0BBF               	decfsz	((??_PING+0)+0+1),f
  2826  0317  2B14               	goto	u4267
  2827  0318  0BC0               	decfsz	((??_PING+0)+0+2),f
  2828  0319  2B14               	goto	u4267
  2829  031A  2B1B               	nop2
  2830                           opt asmopt_on
  2831                           
  2832                           	line	191
  2833                           	
  2834  031B                     l3355:	
  2835                           ;main.h: 191: RA1 =1;
  2836  031B  1283               	bcf	status, 5	;RP0=0, select bank0
  2837  031C  1303               	bcf	status, 6	;RP1=0, select bank0
  2838  031D  1485               	bsf	(41/8),(41)&7
  2839                           	line	192
  2840                           	
  2841  031E                     l3357:	
  2842                           ;main.h: 192: delay1();
  2843  031E  245D               	fcall	_delay1
  2844                           	line	193
  2845                           	
  2846  031F                     l3359:	
  2847                           ;main.h: 193: RA1 =0;
  2848  031F  1283               	bcf	status, 5	;RP0=0, select bank0
  2849  0320  1303               	bcf	status, 6	;RP1=0, select bank0
  2850  0321  1085               	bcf	(41/8),(41)&7
  2851                           	line	194
  2852                           	
  2853  0322                     l3361:	
  2854                           ;main.h: 194: delay1();
  2855  0322  245D               	fcall	_delay1
  2856                           	line	195
  2857                           	
  2858  0323                     l3363:	
  2859                           ;main.h: 195: RA1 =1;
  2860  0323  1283               	bcf	status, 5	;RP0=0, select bank0
  2861  0324  1303               	bcf	status, 6	;RP1=0, select bank0
  2862  0325  1485               	bsf	(41/8),(41)&7
  2863                           	line	196
  2864                           	
  2865  0326                     l3365:	
  2866                           ;main.h: 196: delay1();
  2867  0326  245D               	fcall	_delay1
  2868                           	line	197
  2869                           	
  2870  0327                     l3367:	
  2871                           ;main.h: 197: RA1 =0;
  2872  0327  1283               	bcf	status, 5	;RP0=0, select bank0
  2873  0328  1303               	bcf	status, 6	;RP1=0, select bank0
  2874  0329  1085               	bcf	(41/8),(41)&7
  2875                           	line	198
  2876                           	
  2877  032A                     l3369:	
  2878                           ;main.h: 198: delay1();
  2879  032A  245D               	fcall	_delay1
  2880                           	line	199
  2881                           	
  2882  032B                     l3371:	
  2883                           ;main.h: 199: RA1 =1;
  2884  032B  1283               	bcf	status, 5	;RP0=0, select bank0
  2885  032C  1303               	bcf	status, 6	;RP1=0, select bank0
  2886  032D  1485               	bsf	(41/8),(41)&7
  2887                           	line	200
  2888                           	
  2889  032E                     l3373:	
  2890                           ;main.h: 200: delay1();
  2891  032E  245D               	fcall	_delay1
  2892                           	line	201
  2893                           	
  2894  032F                     l3375:	
  2895                           ;main.h: 201: RA1 =0;
  2896  032F  1283               	bcf	status, 5	;RP0=0, select bank0
  2897  0330  1303               	bcf	status, 6	;RP1=0, select bank0
  2898  0331  1085               	bcf	(41/8),(41)&7
  2899                           	line	202
  2900                           	
  2901  0332                     l3377:	
  2902                           ;main.h: 202: END =1;
  2903  0332  3001               	movlw	low(01h)
  2904  0333  00A8               	movwf	(_END)
  2905  0334  3000               	movlw	high(01h)
  2906  0335  00A9               	movwf	((_END))+1
  2907  0336  2B37               	goto	l542
  2908                           	line	204
  2909                           	
  2910  0337                     l541:	
  2911                           	line	205
  2912                           	
  2913  0337                     l542:	
  2914  0337  0008               	return
  2915                           	opt stack 0
  2916                           GLOBAL	__end_of_PING
  2917  0338                     	__end_of_PING:
  2918 ;; =============== function _PING ends ============
  2919                           
  2920                           	signat	_PING,90
  2921                           	global	_ADC_READ
  2922                           psect	text418,local,class=CODE,delta=2
  2923                           global __ptext418
  2924  043A                     __ptext418:
  2925                           
  2926 ;; *************** function _ADC_READ *****************
  2927 ;; Defined at:
  2928 ;;		line 86 in file "G:\Active\Projects\TRI002\TRI002-Sensor Embedded\TRIG software PIR modified 21.01.14\main.h"
  2929 ;; Parameters:    Size  Location     Type
  2930 ;;		None
  2931 ;; Auto vars:     Size  Location     Type
  2932 ;;		None
  2933 ;; Return value:  Size  Location     Type
  2934 ;;		None               void
  2935 ;; Registers used:
  2936 ;;		wreg, status,2
  2937 ;; Tracked objects:
  2938 ;;		On entry : 0/0
  2939 ;;		On exit  : 0/0
  2940 ;;		Unchanged: 0/0
  2941 ;; Data sizes:     COMMON   BANK0   BANK1   BANK2
  2942 ;;      Params:         0       0       0       0
  2943 ;;      Locals:         0       0       0       0
  2944 ;;      Temps:          2       0       0       0
  2945 ;;      Totals:         2       0       0       0
  2946 ;;Total ram usage:        2 bytes
  2947 ;; Hardware stack levels used:    1
  2948 ;; Hardware stack levels required when called:    1
  2949 ;; This function calls:
  2950 ;;		Nothing
  2951 ;; This function is called by:
  2952 ;;		_main
  2953 ;; This function uses a non-reentrant model
  2954 ;;
  2955                           psect	text418
  2956                           	file	"G:\Active\Projects\TRI002\TRI002-Sensor Embedded\TRIG software PIR modified 21.01
                                 .14\main.h"
  2957                           	line	86
  2958                           	global	__size_of_ADC_READ
  2959  0023                     	__size_of_ADC_READ	equ	__end_of_ADC_READ-_ADC_READ
  2960                           	
  2961  043A                     _ADC_READ:	
  2962                           	opt	stack 6
  2963                           ; Regs used in _ADC_READ: [wreg+status,2]
  2964                           	line	87
  2965                           	
  2966  043A                     l2881:	
  2967                           ;main.h: 87: ADCON1 =0b00000000;
  2968  043A  1683               	bsf	status, 5	;RP0=1, select bank1
  2969  043B  1303               	bcf	status, 6	;RP1=0, select bank1
  2970  043C  019F               	clrf	(159)^080h	;volatile
  2971                           	line	88
  2972                           	
  2973  043D                     l2883:	
  2974                           ;main.h: 88: ADCON0 =0b00000001;
  2975  043D  3001               	movlw	(01h)
  2976  043E  1283               	bcf	status, 5	;RP0=0, select bank0
  2977  043F  1303               	bcf	status, 6	;RP1=0, select bank0
  2978  0440  009F               	movwf	(31)	;volatile
  2979                           	line	89
  2980                           	
  2981  0441                     l2885:	
  2982                           ;main.h: 89: ADON =1;
  2983  0441  141F               	bsf	(248/8),(248)&7
  2984                           	line	90
  2985                           	
  2986  0442                     l2887:	
  2987                           ;main.h: 90: _delay((unsigned long)((5)*(8000000/4000000.0)));
  2988                           	opt asmopt_off
  2989  0442  3003               movlw	3
  2990  0443  00F4               movwf	(??_ADC_READ+0)+0,f
  2991  0444                     u4277:
  2992  0444  0BF4               decfsz	(??_ADC_READ+0)+0,f
  2993  0445  2C44               	goto	u4277
  2994                           opt asmopt_on
  2995                           
  2996                           	line	91
  2997                           	
  2998  0446                     l2889:	
  2999                           ;main.h: 91: GO_DONE =1;
  3000  0446  1283               	bcf	status, 5	;RP0=0, select bank0
  3001  0447  1303               	bcf	status, 6	;RP1=0, select bank0
  3002  0448  151F               	bsf	(250/8),(250)&7
  3003                           	line	92
  3004                           ;main.h: 92: while(GO_DONE);
  3005  0449  2C4A               	goto	l516
  3006                           	
  3007  044A                     l517:	
  3008                           	
  3009  044A                     l516:	
  3010  044A  191F               	btfsc	(250/8),(250)&7
  3011  044B  2C4D               	goto	u3101
  3012  044C  2C4E               	goto	u3100
  3013  044D                     u3101:
  3014  044D  2C4A               	goto	l516
  3015  044E                     u3100:
  3016                           	
  3017  044E                     l518:	
  3018                           	line	93
  3019                           ;main.h: 93: ADON =0;
  3020  044E  101F               	bcf	(248/8),(248)&7
  3021                           	line	94
  3022                           	
  3023  044F                     l2891:	
  3024                           ;main.h: 94: _delay((unsigned long)((5)*(8000000/4000000.0)));
  3025                           	opt asmopt_off
  3026  044F  3003               movlw	3
  3027  0450  00F4               movwf	(??_ADC_READ+0)+0,f
  3028  0451                     u4287:
  3029  0451  0BF4               decfsz	(??_ADC_READ+0)+0,f
  3030  0452  2C51               	goto	u4287
  3031                           opt asmopt_on
  3032                           
  3033                           	line	95
  3034                           ;main.h: 95: adc =ADRESH;
  3035  0453  1283               	bcf	status, 5	;RP0=0, select bank0
  3036  0454  1303               	bcf	status, 6	;RP1=0, select bank0
  3037  0455  081E               	movf	(30),w	;volatile
  3038  0456  00F4               	movwf	(??_ADC_READ+0)+0
  3039  0457  01F5               	clrf	(??_ADC_READ+0)+0+1
  3040  0458  0874               	movf	0+(??_ADC_READ+0)+0,w
  3041  0459  00F6               	movwf	(_adc)
  3042  045A  0875               	movf	1+(??_ADC_READ+0)+0,w
  3043  045B  00F7               	movwf	(_adc+1)
  3044                           	line	96
  3045                           	
  3046  045C                     l519:	
  3047  045C  0008               	return
  3048                           	opt stack 0
  3049                           GLOBAL	__end_of_ADC_READ
  3050  045D                     	__end_of_ADC_READ:
  3051 ;; =============== function _ADC_READ ends ============
  3052                           
  3053                           	signat	_ADC_READ,88
  3054                           	global	_OPTION_SELECT
  3055                           psect	text419,local,class=CODE,delta=2
  3056                           global __ptext419
  3057  040F                     __ptext419:
  3058                           
  3059 ;; *************** function _OPTION_SELECT *****************
  3060 ;; Defined at:
  3061 ;;		line 54 in file "G:\Active\Projects\TRI002\TRI002-Sensor Embedded\TRIG software PIR modified 21.01.14\main.h"
  3062 ;; Parameters:    Size  Location     Type
  3063 ;;		None
  3064 ;; Auto vars:     Size  Location     Type
  3065 ;;		None
  3066 ;; Return value:  Size  Location     Type
  3067 ;;		None               void
  3068 ;; Registers used:
  3069 ;;		wreg, status,2, status,0, pclath, cstack
  3070 ;; Tracked objects:
  3071 ;;		On entry : 0/0
  3072 ;;		On exit  : 0/0
  3073 ;;		Unchanged: 0/0
  3074 ;; Data sizes:     COMMON   BANK0   BANK1   BANK2
  3075 ;;      Params:         0       0       0       0
  3076 ;;      Locals:         0       0       0       0
  3077 ;;      Temps:          0       0       0       0
  3078 ;;      Totals:         0       0       0       0
  3079 ;;Total ram usage:        0 bytes
  3080 ;; Hardware stack levels used:    1
  3081 ;; Hardware stack levels required when called:    2
  3082 ;; This function calls:
  3083 ;;		_delay
  3084 ;; This function is called by:
  3085 ;;		_main
  3086 ;; This function uses a non-reentrant model
  3087 ;;
  3088                           psect	text419
  3089                           	file	"G:\Active\Projects\TRI002\TRI002-Sensor Embedded\TRIG software PIR modified 21.01
                                 .14\main.h"
  3090                           	line	54
  3091                           	global	__size_of_OPTION_SELECT
  3092  002B                     	__size_of_OPTION_SELECT	equ	__end_of_OPTION_SELECT-_OPTION_SELECT
  3093                           	
  3094  040F                     _OPTION_SELECT:	
  3095                           	opt	stack 5
  3096                           ; Regs used in _OPTION_SELECT: [wreg+status,2+status,0+pclath+cstack]
  3097                           	line	55
  3098                           	
  3099  040F                     l2865:	
  3100                           ;main.h: 55: delay();
  3101  040F  247F               	fcall	_delay
  3102                           	line	56
  3103                           	
  3104  0410                     l2867:	
  3105                           ;main.h: 56: if(RA6 ==0)
  3106  0410  1283               	bcf	status, 5	;RP0=0, select bank0
  3107  0411  1303               	bcf	status, 6	;RP1=0, select bank0
  3108  0412  1B05               	btfsc	(46/8),(46)&7
  3109  0413  2C15               	goto	u3061
  3110  0414  2C16               	goto	u3060
  3111  0415                     u3061:
  3112  0415  2C25               	goto	l501
  3113  0416                     u3060:
  3114                           	line	58
  3115                           	
  3116  0416                     l2869:	
  3117                           ;main.h: 57: {
  3118                           ;main.h: 58: if(RA7 ==0)
  3119  0416  1B85               	btfsc	(47/8),(47)&7
  3120  0417  2C19               	goto	u3071
  3121  0418  2C1A               	goto	u3070
  3122  0419                     u3071:
  3123  0419  2C1F               	goto	l2873
  3124  041A                     u3070:
  3125                           	line	60
  3126                           	
  3127  041A                     l2871:	
  3128                           ;main.h: 59: {
  3129                           ;main.h: 60: Z =1;
  3130  041A  3001               	movlw	low(01h)
  3131  041B  00B4               	movwf	(_Z)
  3132  041C  3000               	movlw	high(01h)
  3133  041D  00B5               	movwf	((_Z))+1
  3134                           	line	61
  3135                           ;main.h: 61: }
  3136  041E  2C39               	goto	l508
  3137                           	line	62
  3138                           	
  3139  041F                     l502:	
  3140                           	line	64
  3141                           	
  3142  041F                     l2873:	
  3143                           ;main.h: 62: else
  3144                           ;main.h: 63: {
  3145                           ;main.h: 64: Z =2;
  3146  041F  3002               	movlw	low(02h)
  3147  0420  00B4               	movwf	(_Z)
  3148  0421  3000               	movlw	high(02h)
  3149  0422  00B5               	movwf	((_Z))+1
  3150  0423  2C39               	goto	l508
  3151                           	line	65
  3152                           	
  3153  0424                     l503:	
  3154                           	line	66
  3155                           ;main.h: 65: }
  3156                           ;main.h: 66: }
  3157  0424  2C39               	goto	l508
  3158                           	line	67
  3159                           	
  3160  0425                     l501:	
  3161                           ;main.h: 67: else if(RA6 ==1)
  3162  0425  1F05               	btfss	(46/8),(46)&7
  3163  0426  2C28               	goto	u3081
  3164  0427  2C29               	goto	u3080
  3165  0428                     u3081:
  3166  0428  2C39               	goto	l508
  3167  0429                     u3080:
  3168                           	line	69
  3169                           	
  3170  0429                     l2875:	
  3171                           ;main.h: 68: {
  3172                           ;main.h: 69: if(RA7 ==0)
  3173  0429  1B85               	btfsc	(47/8),(47)&7
  3174  042A  2C2C               	goto	u3091
  3175  042B  2C2D               	goto	u3090
  3176  042C                     u3091:
  3177  042C  2C32               	goto	l2879
  3178  042D                     u3090:
  3179                           	line	71
  3180                           	
  3181  042D                     l2877:	
  3182                           ;main.h: 70: {
  3183                           ;main.h: 71: Z =3;
  3184  042D  3003               	movlw	low(03h)
  3185  042E  00B4               	movwf	(_Z)
  3186  042F  3000               	movlw	high(03h)
  3187  0430  00B5               	movwf	((_Z))+1
  3188                           	line	72
  3189                           ;main.h: 72: }
  3190  0431  2C39               	goto	l508
  3191                           	line	73
  3192                           	
  3193  0432                     l506:	
  3194                           	line	75
  3195                           	
  3196  0432                     l2879:	
  3197                           ;main.h: 73: else
  3198                           ;main.h: 74: {
  3199                           ;main.h: 75: Z =4;
  3200  0432  3004               	movlw	low(04h)
  3201  0433  00B4               	movwf	(_Z)
  3202  0434  3000               	movlw	high(04h)
  3203  0435  00B5               	movwf	((_Z))+1
  3204  0436  2C39               	goto	l508
  3205                           	line	76
  3206                           	
  3207  0437                     l507:	
  3208  0437  2C39               	goto	l508
  3209                           	line	77
  3210                           	
  3211  0438                     l505:	
  3212  0438  2C39               	goto	l508
  3213                           	line	78
  3214                           	
  3215  0439                     l504:	
  3216                           	
  3217  0439                     l508:	
  3218  0439  0008               	return
  3219                           	opt stack 0
  3220                           GLOBAL	__end_of_OPTION_SELECT
  3221  043A                     	__end_of_OPTION_SELECT:
  3222 ;; =============== function _OPTION_SELECT ends ============
  3223                           
  3224                           	signat	_OPTION_SELECT,88
  3225                           	global	_delay1
  3226                           psect	text420,local,class=CODE,delta=2
  3227                           global __ptext420
  3228  045D                     __ptext420:
  3229                           
  3230 ;; *************** function _delay1 *****************
  3231 ;; Defined at:
  3232 ;;		line 81 in file "G:\Active\Projects\TRI002\TRI002-Sensor Embedded\TRIG software PIR modified 21.01.14\main.h"
  3233 ;; Parameters:    Size  Location     Type
  3234 ;;		None
  3235 ;; Auto vars:     Size  Location     Type
  3236 ;;		None
  3237 ;; Return value:  Size  Location     Type
  3238 ;;		None               void
  3239 ;; Registers used:
  3240 ;;		wreg
  3241 ;; Tracked objects:
  3242 ;;		On entry : 0/0
  3243 ;;		On exit  : 0/0
  3244 ;;		Unchanged: 0/0
  3245 ;; Data sizes:     COMMON   BANK0   BANK1   BANK2
  3246 ;;      Params:         0       0       0       0
  3247 ;;      Locals:         0       0       0       0
  3248 ;;      Temps:          0       0       0       0
  3249 ;;      Totals:         0       0       0       0
  3250 ;;Total ram usage:        0 bytes
  3251 ;; Hardware stack levels used:    1
  3252 ;; Hardware stack levels required when called:    1
  3253 ;; This function calls:
  3254 ;;		Nothing
  3255 ;; This function is called by:
  3256 ;;		_PING
  3257 ;; This function uses a non-reentrant model
  3258 ;;
  3259                           psect	text420
  3260                           	file	"G:\Active\Projects\TRI002\TRI002-Sensor Embedded\TRIG software PIR modified 21.01
                                 .14\main.h"
  3261                           	line	81
  3262                           	global	__size_of_delay1
  3263  0022                     	__size_of_delay1	equ	__end_of_delay1-_delay1
  3264                           	
  3265  045D                     _delay1:	
  3266                           	opt	stack 5
  3267                           ; Regs used in _delay1: [wreg]
  3268                           	line	82
  3269                           	
  3270  045D                     l2835:	
  3271                           ;main.h: 82: for(i=1;i<20000;i++);
  3272  045D  3001               	movlw	low(01h)
  3273  045E  1283               	bcf	status, 5	;RP0=0, select bank0
  3274  045F  1303               	bcf	status, 6	;RP1=0, select bank0
  3275  0460  00C1               	movwf	(_i)
  3276  0461  3000               	movlw	high(01h)
  3277  0462  00C2               	movwf	((_i))+1
  3278  0463  304E               	movlw	high(04E20h)
  3279  0464  0242               	subwf	(_i+1),w
  3280  0465  3020               	movlw	low(04E20h)
  3281  0466  1903               	skipnz
  3282  0467  0241               	subwf	(_i),w
  3283  0468  1C03               	skipc
  3284  0469  2C6B               	goto	u2991
  3285  046A  2C6C               	goto	u2990
  3286  046B                     u2991:
  3287  046B  2C6E               	goto	l2839
  3288  046C                     u2990:
  3289  046C  2C7E               	goto	l513
  3290                           	
  3291  046D                     l2837:	
  3292  046D  2C7E               	goto	l513
  3293                           	
  3294  046E                     l511:	
  3295                           	
  3296  046E                     l2839:	
  3297  046E  3001               	movlw	low(01h)
  3298  046F  07C1               	addwf	(_i),f
  3299  0470  1803               	skipnc
  3300  0471  0AC2               	incf	(_i+1),f
  3301  0472  3000               	movlw	high(01h)
  3302  0473  07C2               	addwf	(_i+1),f
  3303  0474  304E               	movlw	high(04E20h)
  3304  0475  0242               	subwf	(_i+1),w
  3305  0476  3020               	movlw	low(04E20h)
  3306  0477  1903               	skipnz
  3307  0478  0241               	subwf	(_i),w
  3308  0479  1C03               	skipc
  3309  047A  2C7C               	goto	u3001
  3310  047B  2C7D               	goto	u3000
  3311  047C                     u3001:
  3312  047C  2C6E               	goto	l2839
  3313  047D                     u3000:
  3314  047D  2C7E               	goto	l513
  3315                           	
  3316  047E                     l512:	
  3317                           	line	83
  3318                           	
  3319  047E                     l513:	
  3320  047E  0008               	return
  3321                           	opt stack 0
  3322                           GLOBAL	__end_of_delay1
  3323  047F                     	__end_of_delay1:
  3324 ;; =============== function _delay1 ends ============
  3325                           
  3326                           	signat	_delay1,88
  3327                           	global	_delay2
  3328                           psect	text421,local,class=CODE,delta=2
  3329                           global __ptext421
  3330  04A1                     __ptext421:
  3331                           
  3332 ;; *************** function _delay2 *****************
  3333 ;; Defined at:
  3334 ;;		line 49 in file "G:\Active\Projects\TRI002\TRI002-Sensor Embedded\TRIG software PIR modified 21.01.14\main.h"
  3335 ;; Parameters:    Size  Location     Type
  3336 ;;		None
  3337 ;; Auto vars:     Size  Location     Type
  3338 ;;		None
  3339 ;; Return value:  Size  Location     Type
  3340 ;;		None               void
  3341 ;; Registers used:
  3342 ;;		wreg, status,2
  3343 ;; Tracked objects:
  3344 ;;		On entry : 0/0
  3345 ;;		On exit  : 0/0
  3346 ;;		Unchanged: 0/0
  3347 ;; Data sizes:     COMMON   BANK0   BANK1   BANK2
  3348 ;;      Params:         0       0       0       0
  3349 ;;      Locals:         0       0       0       0
  3350 ;;      Temps:          0       0       0       0
  3351 ;;      Totals:         0       0       0       0
  3352 ;;Total ram usage:        0 bytes
  3353 ;; Hardware stack levels used:    1
  3354 ;; Hardware stack levels required when called:    1
  3355 ;; This function calls:
  3356 ;;		Nothing
  3357 ;; This function is called by:
  3358 ;;		_PING
  3359 ;; This function uses a non-reentrant model
  3360 ;;
  3361                           psect	text421
  3362                           	file	"G:\Active\Projects\TRI002\TRI002-Sensor Embedded\TRIG software PIR modified 21.01
                                 .14\main.h"
  3363                           	line	49
  3364                           	global	__size_of_delay2
  3365  0020                     	__size_of_delay2	equ	__end_of_delay2-_delay2
  3366                           	
  3367  04A1                     _delay2:	
  3368                           	opt	stack 5
  3369                           ; Regs used in _delay2: [wreg+status,2]
  3370                           	line	50
  3371                           	
  3372  04A1                     l2827:	
  3373                           ;main.h: 50: for(i=0;i<2500;i++);
  3374  04A1  1283               	bcf	status, 5	;RP0=0, select bank0
  3375  04A2  1303               	bcf	status, 6	;RP1=0, select bank0
  3376  04A3  01C1               	clrf	(_i)
  3377  04A4  01C2               	clrf	(_i+1)
  3378                           	
  3379  04A5                     l2829:	
  3380  04A5  3009               	movlw	high(09C4h)
  3381  04A6  0242               	subwf	(_i+1),w
  3382  04A7  30C4               	movlw	low(09C4h)
  3383  04A8  1903               	skipnz
  3384  04A9  0241               	subwf	(_i),w
  3385  04AA  1C03               	skipc
  3386  04AB  2CAD               	goto	u2971
  3387  04AC  2CAE               	goto	u2970
  3388  04AD                     u2971:
  3389  04AD  2CB0               	goto	l2833
  3390  04AE                     u2970:
  3391  04AE  2CC0               	goto	l498
  3392                           	
  3393  04AF                     l2831:	
  3394  04AF  2CC0               	goto	l498
  3395                           	
  3396  04B0                     l496:	
  3397                           	
  3398  04B0                     l2833:	
  3399  04B0  3001               	movlw	low(01h)
  3400  04B1  07C1               	addwf	(_i),f
  3401  04B2  1803               	skipnc
  3402  04B3  0AC2               	incf	(_i+1),f
  3403  04B4  3000               	movlw	high(01h)
  3404  04B5  07C2               	addwf	(_i+1),f
  3405  04B6  3009               	movlw	high(09C4h)
  3406  04B7  0242               	subwf	(_i+1),w
  3407  04B8  30C4               	movlw	low(09C4h)
  3408  04B9  1903               	skipnz
  3409  04BA  0241               	subwf	(_i),w
  3410  04BB  1C03               	skipc
  3411  04BC  2CBE               	goto	u2981
  3412  04BD  2CBF               	goto	u2980
  3413  04BE                     u2981:
  3414  04BE  2CB0               	goto	l2833
  3415  04BF                     u2980:
  3416  04BF  2CC0               	goto	l498
  3417                           	
  3418  04C0                     l497:	
  3419                           	line	51
  3420                           	
  3421  04C0                     l498:	
  3422  04C0  0008               	return
  3423                           	opt stack 0
  3424                           GLOBAL	__end_of_delay2
  3425  04C1                     	__end_of_delay2:
  3426 ;; =============== function _delay2 ends ============
  3427                           
  3428                           	signat	_delay2,88
  3429                           	global	_delay
  3430                           psect	text422,local,class=CODE,delta=2
  3431                           global __ptext422
  3432  047F                     __ptext422:
  3433                           
  3434 ;; *************** function _delay *****************
  3435 ;; Defined at:
  3436 ;;		line 44 in file "G:\Active\Projects\TRI002\TRI002-Sensor Embedded\TRIG software PIR modified 21.01.14\main.h"
  3437 ;; Parameters:    Size  Location     Type
  3438 ;;		None
  3439 ;; Auto vars:     Size  Location     Type
  3440 ;;		None
  3441 ;; Return value:  Size  Location     Type
  3442 ;;		None               void
  3443 ;; Registers used:
  3444 ;;		wreg
  3445 ;; Tracked objects:
  3446 ;;		On entry : 0/0
  3447 ;;		On exit  : 0/0
  3448 ;;		Unchanged: 0/0
  3449 ;; Data sizes:     COMMON   BANK0   BANK1   BANK2
  3450 ;;      Params:         0       0       0       0
  3451 ;;      Locals:         0       0       0       0
  3452 ;;      Temps:          0       0       0       0
  3453 ;;      Totals:         0       0       0       0
  3454 ;;Total ram usage:        0 bytes
  3455 ;; Hardware stack levels used:    1
  3456 ;; Hardware stack levels required when called:    1
  3457 ;; This function calls:
  3458 ;;		Nothing
  3459 ;; This function is called by:
  3460 ;;		_OPTION_SELECT
  3461 ;; This function uses a non-reentrant model
  3462 ;;
  3463                           psect	text422
  3464                           	file	"G:\Active\Projects\TRI002\TRI002-Sensor Embedded\TRIG software PIR modified 21.01
                                 .14\main.h"
  3465                           	line	44
  3466                           	global	__size_of_delay
  3467  0022                     	__size_of_delay	equ	__end_of_delay-_delay
  3468                           	
  3469  047F                     _delay:	
  3470                           	opt	stack 5
  3471                           ; Regs used in _delay: [wreg]
  3472                           	line	45
  3473                           	
  3474  047F                     l2821:	
  3475                           ;main.h: 45: for(i=1;i<2000;i++);
  3476  047F  3001               	movlw	low(01h)
  3477  0480  1283               	bcf	status, 5	;RP0=0, select bank0
  3478  0481  1303               	bcf	status, 6	;RP1=0, select bank0
  3479  0482  00C1               	movwf	(_i)
  3480  0483  3000               	movlw	high(01h)
  3481  0484  00C2               	movwf	((_i))+1
  3482  0485  3007               	movlw	high(07D0h)
  3483  0486  0242               	subwf	(_i+1),w
  3484  0487  30D0               	movlw	low(07D0h)
  3485  0488  1903               	skipnz
  3486  0489  0241               	subwf	(_i),w
  3487  048A  1C03               	skipc
  3488  048B  2C8D               	goto	u2951
  3489  048C  2C8E               	goto	u2950
  3490  048D                     u2951:
  3491  048D  2C90               	goto	l2825
  3492  048E                     u2950:
  3493  048E  2CA0               	goto	l493
  3494                           	
  3495  048F                     l2823:	
  3496  048F  2CA0               	goto	l493
  3497                           	
  3498  0490                     l491:	
  3499                           	
  3500  0490                     l2825:	
  3501  0490  3001               	movlw	low(01h)
  3502  0491  07C1               	addwf	(_i),f
  3503  0492  1803               	skipnc
  3504  0493  0AC2               	incf	(_i+1),f
  3505  0494  3000               	movlw	high(01h)
  3506  0495  07C2               	addwf	(_i+1),f
  3507  0496  3007               	movlw	high(07D0h)
  3508  0497  0242               	subwf	(_i+1),w
  3509  0498  30D0               	movlw	low(07D0h)
  3510  0499  1903               	skipnz
  3511  049A  0241               	subwf	(_i),w
  3512  049B  1C03               	skipc
  3513  049C  2C9E               	goto	u2961
  3514  049D  2C9F               	goto	u2960
  3515  049E                     u2961:
  3516  049E  2C90               	goto	l2825
  3517  049F                     u2960:
  3518  049F  2CA0               	goto	l493
  3519                           	
  3520  04A0                     l492:	
  3521                           	line	46
  3522                           	
  3523  04A0                     l493:	
  3524  04A0  0008               	return
  3525                           	opt stack 0
  3526                           GLOBAL	__end_of_delay
  3527  04A1                     	__end_of_delay:
  3528 ;; =============== function _delay ends ============
  3529                           
  3530                           	signat	_delay,88
  3531                           	global	_interrupts
  3532                           psect	text423,local,class=CODE,delta=2
  3533                           global __ptext423
  3534  04F1                     __ptext423:
  3535                           
  3536 ;; *************** function _interrupts *****************
  3537 ;; Defined at:
  3538 ;;		line 35 in file "G:\Active\Projects\TRI002\TRI002-Sensor Embedded\TRIG software PIR modified 21.01.14\main.h"
  3539 ;; Parameters:    Size  Location     Type
  3540 ;;		None
  3541 ;; Auto vars:     Size  Location     Type
  3542 ;;		None
  3543 ;; Return value:  Size  Location     Type
  3544 ;;		None               void
  3545 ;; Registers used:
  3546 ;;		None
  3547 ;; Tracked objects:
  3548 ;;		On entry : 0/0
  3549 ;;		On exit  : 0/0
  3550 ;;		Unchanged: 0/0
  3551 ;; Data sizes:     COMMON   BANK0   BANK1   BANK2
  3552 ;;      Params:         0       0       0       0
  3553 ;;      Locals:         0       0       0       0
  3554 ;;      Temps:          0       0       0       0
  3555 ;;      Totals:         0       0       0       0
  3556 ;;Total ram usage:        0 bytes
  3557 ;; Hardware stack levels used:    1
  3558 ;; Hardware stack levels required when called:    1
  3559 ;; This function calls:
  3560 ;;		Nothing
  3561 ;; This function is called by:
  3562 ;;		_main
  3563 ;; This function uses a non-reentrant model
  3564 ;;
  3565                           psect	text423
  3566                           	file	"G:\Active\Projects\TRI002\TRI002-Sensor Embedded\TRIG software PIR modified 21.01
                                 .14\main.h"
  3567                           	line	35
  3568                           	global	__size_of_interrupts
  3569  0008                     	__size_of_interrupts	equ	__end_of_interrupts-_interrupts
  3570                           	
  3571  04F1                     _interrupts:	
  3572                           	opt	stack 6
  3573                           ; Regs used in _interrupts: []
  3574                           	line	36
  3575                           	
  3576  04F1                     l2819:	
  3577                           ;main.h: 36: GIE =1;
  3578  04F1  178B               	bsf	(95/8),(95)&7
  3579                           	line	37
  3580                           ;main.h: 37: PEIE =1;
  3581  04F2  170B               	bsf	(94/8),(94)&7
  3582                           	line	38
  3583                           ;main.h: 38: INTEDG =0;
  3584  04F3  1683               	bsf	status, 5	;RP0=1, select bank1
  3585  04F4  1303               	bcf	status, 6	;RP1=0, select bank1
  3586  04F5  1301               	bcf	(1038/8)^080h,(1038)&7
  3587                           	line	39
  3588                           ;main.h: 39: INTF =0;
  3589  04F6  108B               	bcf	(89/8),(89)&7
  3590                           	line	40
  3591                           ;main.h: 40: INTE =1;
  3592  04F7  160B               	bsf	(92/8),(92)&7
  3593                           	line	41
  3594                           	
  3595  04F8                     l488:	
  3596  04F8  0008               	return
  3597                           	opt stack 0
  3598                           GLOBAL	__end_of_interrupts
  3599  04F9                     	__end_of_interrupts:
  3600 ;; =============== function _interrupts ends ============
  3601                           
  3602                           	signat	_interrupts,88
  3603                           	global	_init
  3604                           psect	text424,local,class=CODE,delta=2
  3605                           global __ptext424
  3606  04C1                     __ptext424:
  3607                           
  3608 ;; *************** function _init *****************
  3609 ;; Defined at:
  3610 ;;		line 16 in file "G:\Active\Projects\TRI002\TRI002-Sensor Embedded\TRIG software PIR modified 21.01.14\main.h"
  3611 ;; Parameters:    Size  Location     Type
  3612 ;;		None
  3613 ;; Auto vars:     Size  Location     Type
  3614 ;;		None
  3615 ;; Return value:  Size  Location     Type
  3616 ;;		None               void
  3617 ;; Registers used:
  3618 ;;		wreg, status,2
  3619 ;; Tracked objects:
  3620 ;;		On entry : 0/0
  3621 ;;		On exit  : 0/0
  3622 ;;		Unchanged: 0/0
  3623 ;; Data sizes:     COMMON   BANK0   BANK1   BANK2
  3624 ;;      Params:         0       0       0       0
  3625 ;;      Locals:         0       0       0       0
  3626 ;;      Temps:          0       0       0       0
  3627 ;;      Totals:         0       0       0       0
  3628 ;;Total ram usage:        0 bytes
  3629 ;; Hardware stack levels used:    1
  3630 ;; Hardware stack levels required when called:    1
  3631 ;; This function calls:
  3632 ;;		Nothing
  3633 ;; This function is called by:
  3634 ;;		_main
  3635 ;; This function uses a non-reentrant model
  3636 ;;
  3637                           psect	text424
  3638                           	file	"G:\Active\Projects\TRI002\TRI002-Sensor Embedded\TRIG software PIR modified 21.01
                                 .14\main.h"
  3639                           	line	16
  3640                           	global	__size_of_init
  3641  001D                     	__size_of_init	equ	__end_of_init-_init
  3642                           	
  3643  04C1                     _init:	
  3644                           	opt	stack 6
  3645                           ; Regs used in _init: [wreg+status,2]
  3646                           	line	17
  3647                           	
  3648  04C1                     l2791:	
  3649                           ;main.h: 17: PORTA =0;
  3650  04C1  1283               	bcf	status, 5	;RP0=0, select bank0
  3651  04C2  1303               	bcf	status, 6	;RP1=0, select bank0
  3652  04C3  0185               	clrf	(5)	;volatile
  3653                           	line	18
  3654                           	
  3655  04C4                     l2793:	
  3656                           ;main.h: 18: TRISA0 =1;
  3657  04C4  1683               	bsf	status, 5	;RP0=1, select bank1
  3658  04C5  1303               	bcf	status, 6	;RP1=0, select bank1
  3659  04C6  1405               	bsf	(1064/8)^080h,(1064)&7
  3660                           	line	19
  3661                           	
  3662  04C7                     l2795:	
  3663                           ;main.h: 19: TRISA1 =0;
  3664  04C7  1085               	bcf	(1065/8)^080h,(1065)&7
  3665                           	line	20
  3666                           	
  3667  04C8                     l2797:	
  3668                           ;main.h: 20: TRISA2 =0;
  3669  04C8  1105               	bcf	(1066/8)^080h,(1066)&7
  3670                           	line	21
  3671                           	
  3672  04C9                     l2799:	
  3673                           ;main.h: 21: TRISA6 =1;
  3674  04C9  1705               	bsf	(1070/8)^080h,(1070)&7
  3675                           	line	22
  3676                           	
  3677  04CA                     l2801:	
  3678                           ;main.h: 22: TRISA7 =1;
  3679  04CA  1785               	bsf	(1071/8)^080h,(1071)&7
  3680                           	line	23
  3681                           ;main.h: 23: PORTB =0;
  3682  04CB  1283               	bcf	status, 5	;RP0=0, select bank0
  3683  04CC  1303               	bcf	status, 6	;RP1=0, select bank0
  3684  04CD  0186               	clrf	(6)	;volatile
  3685                           	line	24
  3686                           	
  3687  04CE                     l2803:	
  3688                           ;main.h: 24: TRISB0 =1;
  3689  04CE  1683               	bsf	status, 5	;RP0=1, select bank1
  3690  04CF  1303               	bcf	status, 6	;RP1=0, select bank1
  3691  04D0  1406               	bsf	(1072/8)^080h,(1072)&7
  3692                           	line	25
  3693                           	
  3694  04D1                     l2805:	
  3695                           ;main.h: 25: TRISB1 =0;
  3696  04D1  1086               	bcf	(1073/8)^080h,(1073)&7
  3697                           	line	26
  3698                           	
  3699  04D2                     l2807:	
  3700                           ;main.h: 26: TRISB2 =1;
  3701  04D2  1506               	bsf	(1074/8)^080h,(1074)&7
  3702                           	line	27
  3703                           	
  3704  04D3                     l2809:	
  3705                           ;main.h: 27: TRISB3 =0;
  3706  04D3  1186               	bcf	(1075/8)^080h,(1075)&7
  3707                           	line	28
  3708                           	
  3709  04D4                     l2811:	
  3710                           ;main.h: 28: TRISB4 =0;
  3711  04D4  1206               	bcf	(1076/8)^080h,(1076)&7
  3712                           	line	29
  3713                           	
  3714  04D5                     l2813:	
  3715                           ;main.h: 29: TRISB5 =1;
  3716  04D5  1686               	bsf	(1077/8)^080h,(1077)&7
  3717                           	line	30
  3718                           	
  3719  04D6                     l2815:	
  3720                           ;main.h: 30: SSPEN =0;
  3721  04D6  1283               	bcf	status, 5	;RP0=0, select bank0
  3722  04D7  1303               	bcf	status, 6	;RP1=0, select bank0
  3723  04D8  1294               	bcf	(165/8),(165)&7
  3724                           	line	31
  3725                           	
  3726  04D9                     l2817:	
  3727                           ;main.h: 31: OSCCON =0b01110100;
  3728  04D9  3074               	movlw	(074h)
  3729  04DA  1683               	bsf	status, 5	;RP0=1, select bank1
  3730  04DB  1303               	bcf	status, 6	;RP1=0, select bank1
  3731  04DC  008F               	movwf	(143)^080h	;volatile
  3732                           	line	32
  3733                           	
  3734  04DD                     l485:	
  3735  04DD  0008               	return
  3736                           	opt stack 0
  3737                           GLOBAL	__end_of_init
  3738  04DE                     	__end_of_init:
  3739 ;; =============== function _init ends ============
  3740                           
  3741                           	signat	_init,88
  3742                           	global	_ISR
  3743                           psect	text425,local,class=CODE,delta=2
  3744                           global __ptext425
  3745  03D4                     __ptext425:
  3746                           
  3747 ;; *************** function _ISR *****************
  3748 ;; Defined at:
  3749 ;;		line 237 in file "G:\Active\Projects\TRI002\TRI002-Sensor Embedded\TRIG software PIR modified 21.01.14\Main.c"
  3750 ;; Parameters:    Size  Location     Type
  3751 ;;		None
  3752 ;; Auto vars:     Size  Location     Type
  3753 ;;		None
  3754 ;; Return value:  Size  Location     Type
  3755 ;;		None               void
  3756 ;; Registers used:
  3757 ;;		wreg, status,2
  3758 ;; Tracked objects:
  3759 ;;		On entry : 0/0
  3760 ;;		On exit  : 0/0
  3761 ;;		Unchanged: 0/0
  3762 ;; Data sizes:     COMMON   BANK0   BANK1   BANK2
  3763 ;;      Params:         0       0       0       0
  3764 ;;      Locals:         0       0       0       0
  3765 ;;      Temps:          4       0       0       0
  3766 ;;      Totals:         4       0       0       0
  3767 ;;Total ram usage:        4 bytes
  3768 ;; Hardware stack levels used:    1
  3769 ;; This function calls:
  3770 ;;		Nothing
  3771 ;; This function is called by:
  3772 ;;		Interrupt level 1
  3773 ;; This function uses a non-reentrant model
  3774 ;;
  3775                           psect	text425
  3776                           	file	"G:\Active\Projects\TRI002\TRI002-Sensor Embedded\TRIG software PIR modified 21.01
                                 .14\Main.c"
  3777                           	line	237
  3778                           	global	__size_of_ISR
  3779  003B                     	__size_of_ISR	equ	__end_of_ISR-_ISR
  3780                           	
  3781  03D4                     _ISR:	
  3782                           	opt	stack 5
  3783                           ; Regs used in _ISR: [wreg+status,2]
  3784                           psect	intentry,class=CODE,delta=2
  3785                           global __pintentry
  3786  0004                     __pintentry:
  3787                           global interrupt_function
  3788  0004                     interrupt_function:
  3789                           	global saved_w
  3790  007E                     	saved_w	set	btemp+0
  3791  0004  00FE               	movwf	saved_w
  3792  0005  0E03               	swapf	status,w
  3793  0006  00F0               	movwf	(??_ISR+0)
  3794  0007  0804               	movf	fsr0,w
  3795  0008  00F1               	movwf	(??_ISR+1)
  3796  0009  080A               	movf	pclath,w
  3797  000A  00F2               	movwf	(??_ISR+2)
  3798  000B  1283               	bcf	status, 5	;RP0=0, select bank0
  3799  000C  1303               	bcf	status, 6	;RP1=0, select bank0
  3800  000D  087F               	movf	btemp+1,w
  3801  000E  00F3               	movwf	(??_ISR+3)
  3802  000F  2BD4               	ljmp	_ISR
  3803                           psect	text425
  3804                           	line	238
  3805                           	
  3806  03D4                     i1l2841:	
  3807                           ;Main.c: 238: if(INTF ==1)
  3808  03D4  1C8B               	btfss	(89/8),(89)&7
  3809  03D5  2BD7               	goto	u301_21
  3810  03D6  2BD8               	goto	u301_20
  3811  03D7                     u301_21:
  3812  03D7  2C04               	goto	i1l626
  3813  03D8                     u301_20:
  3814                           	line	240
  3815                           	
  3816  03D8                     i1l2843:	
  3817                           ;Main.c: 239: {
  3818                           ;Main.c: 240: if((OR ==1) && (END !=1))
  3819  03D8  3001               	movlw	01h
  3820  03D9  062C               	xorwf	(_OR),w
  3821  03DA  042D               	iorwf	(_OR+1),w
  3822  03DB  1D03               	skipz
  3823  03DC  2BDE               	goto	u302_21
  3824  03DD  2BDF               	goto	u302_20
  3825  03DE                     u302_21:
  3826  03DE  2BE9               	goto	i1l2849
  3827  03DF                     u302_20:
  3828                           	
  3829  03DF                     i1l2845:	
  3830  03DF  3001               	movlw	01h
  3831  03E0  0628               	xorwf	(_END),w
  3832  03E1  0429               	iorwf	(_END+1),w
  3833  03E2  1903               	skipnz
  3834  03E3  2BE5               	goto	u303_21
  3835  03E4  2BE6               	goto	u303_20
  3836  03E5                     u303_21:
  3837  03E5  2BE9               	goto	i1l2849
  3838  03E6                     u303_20:
  3839                           	line	242
  3840                           	
  3841  03E6                     i1l2847:	
  3842                           ;Main.c: 241: {
  3843                           ;Main.c: 242: RB1 =0;
  3844  03E6  1086               	bcf	(49/8),(49)&7
  3845                           	line	243
  3846                           ;Main.c: 243: RA1 =1;
  3847  03E7  1485               	bsf	(41/8),(41)&7
  3848  03E8  2BE9               	goto	i1l2849
  3849                           	line	244
  3850                           	
  3851  03E9                     i1l624:	
  3852                           	line	245
  3853                           	
  3854  03E9                     i1l2849:	
  3855                           ;Main.c: 244: }
  3856                           ;Main.c: 245: if((AND ==1) && (T ==2))
  3857  03E9  3001               	movlw	01h
  3858  03EA  0624               	xorwf	(_AND),w
  3859  03EB  0425               	iorwf	(_AND+1),w
  3860  03EC  1D03               	skipz
  3861  03ED  2BEF               	goto	u304_21
  3862  03EE  2BF0               	goto	u304_20
  3863  03EF                     u304_21:
  3864  03EF  2BFA               	goto	i1l2855
  3865  03F0                     u304_20:
  3866                           	
  3867  03F0                     i1l2851:	
  3868  03F0  3002               	movlw	02h
  3869  03F1  0630               	xorwf	(_T),w
  3870  03F2  0431               	iorwf	(_T+1),w
  3871  03F3  1D03               	skipz
  3872  03F4  2BF6               	goto	u305_21
  3873  03F5  2BF7               	goto	u305_20
  3874  03F6                     u305_21:
  3875  03F6  2BFA               	goto	i1l2855
  3876  03F7                     u305_20:
  3877                           	line	247
  3878                           	
  3879  03F7                     i1l2853:	
  3880                           ;Main.c: 246: {
  3881                           ;Main.c: 247: RB1 =0;
  3882  03F7  1086               	bcf	(49/8),(49)&7
  3883                           	line	248
  3884                           ;Main.c: 248: RA1 =1;
  3885  03F8  1485               	bsf	(41/8),(41)&7
  3886  03F9  2BFA               	goto	i1l2855
  3887                           	line	249
  3888                           	
  3889  03FA                     i1l625:	
  3890                           	line	250
  3891                           	
  3892  03FA                     i1l2855:	
  3893                           ;Main.c: 249: }
  3894                           ;Main.c: 250: IN =1;
  3895  03FA  3001               	movlw	low(01h)
  3896  03FB  00AA               	movwf	(_IN)
  3897  03FC  3000               	movlw	high(01h)
  3898  03FD  00AB               	movwf	((_IN))+1
  3899                           	line	251
  3900                           	
  3901  03FE                     i1l2857:	
  3902                           ;Main.c: 251: INTE =0;
  3903  03FE  120B               	bcf	(92/8),(92)&7
  3904                           	line	252
  3905                           	
  3906  03FF                     i1l2859:	
  3907                           ;Main.c: 252: INTF =0;
  3908  03FF  108B               	bcf	(89/8),(89)&7
  3909                           	line	253
  3910                           	
  3911  0400                     i1l2861:	
  3912                           ;Main.c: 253: INTE =1;
  3913  0400  160B               	bsf	(92/8),(92)&7
  3914                           	line	254
  3915                           	
  3916  0401                     i1l2863:	
  3917                           ;Main.c: 254: c =0;
  3918  0401  01F8               	clrf	(_c)
  3919  0402  01F9               	clrf	(_c+1)
  3920  0403  2C04               	goto	i1l626
  3921                           	line	255
  3922                           	
  3923  0404                     i1l623:	
  3924                           	line	256
  3925                           	
  3926  0404                     i1l626:	
  3927  0404  0873               	movf	(??_ISR+3),w
  3928  0405  00FF               	movwf	btemp+1
  3929  0406  0872               	movf	(??_ISR+2),w
  3930  0407  008A               	movwf	pclath
  3931  0408  0871               	movf	(??_ISR+1),w
  3932  0409  0084               	movwf	fsr0
  3933  040A  0E70               	swapf	(??_ISR+0)^0FFFFFF80h,w
  3934  040B  0083               	movwf	status
  3935  040C  0EFE               	swapf	saved_w,f
  3936  040D  0E7E               	swapf	saved_w,w
  3937  040E  0009               	retfie
  3938                           	opt stack 0
  3939                           GLOBAL	__end_of_ISR
  3940  040F                     	__end_of_ISR:
  3941 ;; =============== function _ISR ends ============
  3942                           
  3943                           	signat	_ISR,88
  3944                           psect	text426,local,class=CODE,delta=2
  3945                           global __ptext426
  3946  0000                     __ptext426:
  3947                           	global	btemp
  3948  007E                     	btemp set 07Eh
  3949                           
  3950                           	DABS	1,126,2	;btemp
  3951                           	global	wtemp0
  3952  007E                     	wtemp0 set btemp


HI-TECH Software PICC Macro Assembler V9.83 build 10920 
Symbol Table                                                                                   Wed Jan 22 16:16:57 2014

                     _T 0030                       _Y 0032                       _Z 0034                       _c 0078  
                     _i 0041                      _IN 002A                      _RD 0C60                      _OR 002C  
                    _WR 0C61                      fsr 0004                     l501 0425                     l502 041F  
                   l511 046E                     l503 0424                     l512 047E                     l504 0439  
                   l600 0184                     l513 047E                     l505 0438                     l601 0212  
                   l506 0432                     l530 0249                     l522 0240                     l610 020A  
                   l602 0185                     l507 0437                     l531 0257                     l523 022A  
                   l611 01D1                     l603 01C7                     l508 0439                     l516 044A  
                   l540 0305                     l532 0267                     l524 023F                     l620 021C  
                   l612 01E7                     l604 018C                     l517 044A                     l541 0337  
                   l533 0275                     l525 0239                     l613 0203                     l605 01A2  
                   l518 044E                     l542 0337                     l534 0283                     l526 0239  
                   l614 0200                     l606 01C0                     l519 045C                     l535 02B7  
                   l527 023E                     l551 0377                     l615 0208                     l607 01BD  
                   l536 02D5                     l528 0248                     l552 039B                     l616 0211  
                   l608 01C5                     l537 02FB                     l529 025D                     l553 03A3  
                   l545 035D                     l617 021A                     l609 01CE                     l561 003A  
                   l538 02E7                     l554 03D3                     l546 034B                     l618 021B  
                   l570 007E                     l562 003D                     l491 0490                     l539 02F5  
                   l555 03D2                     l547 035C                     l619 021C                     l563 0095  
                   l571 0091                     l492 04A0                     l556 03D1                     l548 03A4  
                   l580 00CC                     l572 0093                     l564 003E                     l485 04DD  
                   l493 04A0                     l557 03D0                     l549 0386                     l581 00D5  
                   l573 0094                     l565 003F                     l558 03D3                     l590 0140  
                   l582 0102                     l574 009F                     l566 0060                     l591 0114  
                   l575 010A                     l583 00D6                     l567 0046                     l488 04F8  
                   l496 04B0                     l592 012A                     l584 00EC                     l576 00A0  
                   l568 005F                     l497 04C0                     l593 013E                     l585 0100  
                   l577 00CE                     l569 006A                     l498 04C0                     l594 0147  
                   l586 0109                     l578 00A1                     l595 0174                     l587 0112  
                   l579 00B8                     l588 017C                     l596 0148                     _AND 0024  
                   l597 015E                     l589 0113                     l598 0172                     l599 017B  
                   _GIE 005F                     _END 0028                     _RA1 0029                     _RB0 0030  
                   _RB1 0031                     _RB2 0032                     _RB3 0033                     _RB4 0034  
                   _RA6 002E                     _RA7 002F                     _ISR 03D4                     _adc 0076  
                   fsr0 0004                     indf 0000                    ?_ISR 0070                    l3301 0295  
                  l3311 02A7                    l3303 0299                    l3321 02BE                    l3313 02AB  
                  l3305 029C                    l3401 037E                    l3331 02CC                    l3323 02BF  
                  l3315 02AF                    l3307 029F                    l3411 03A1                    l3403 0386  
                  l3341 02DD                    l3333 02D1                    l3325 02C2                    l3317 02B3  
                  l3309 02A3                    l3421 03BC                    l3405 038D                    l3413 03A4  
                  l3501 00C2                    l3351 0305                    l3343 02DE                    l3327 02C6  
                  l3335 02D5                    l3319 02B7                    l3271 0225                    l3423 03C8  
                  l3415 03AB                    l3407 0394                    l3511 00D6                    l3503 00C5  
                  l3431 0019                    l2801 04CA                    l3361 0322                    l3353 030E  
                  l3345 02DF                    l3337 02D8                    l3329 02C9                    l3281 0267  
                  l3273 0226                    l3417 03B2                    l3409 039F                    l3601 01B9  
                  l3521 00ED                    l3513 00E5                    l3505 00C9                    l3441 0026  
                  l3433 001B                    l3425 0011                    l2811 04D4                    l2803 04CE  
                  l3371 032B                    l3363 0323                    l3355 031B                    l3347 02E2  
                  l3339 02DB                    l3291 0280                    l3283 026E                    l3275 022E  
                  l3419 03B8                    l3603 01BA                    l3611 01C7                    l3523 00F6  
                  l3515 00E9                    l3531 0102                    l3507 00CC                    l3451 0037  
                  l3443 0029                    l3435 001F                    l3427 0013                    l2813 04D5  
                  l2805 04D1                    l2821 047F                    l3373 032E                    l3365 0326  
                  l3357 031E                    l3349 02EB                    l3293 0283                    l3285 0270  
                  l3277 0240                    l3269 021D                    l3381 0341                    l3621 01E5  
                  l3613 01CE                    l3605 01BD                    l3541 0128                    l3525 00F9  
                  l3517 00EA                    l3509 00CE                    l3533 010A                    l3461 005C  
                  l3453 003A                    l3445 002A                    l3437 0021                    l3429 0017  
                  l2815 04D6                    l2807 04D2                    l2823 048F                    l2831 04AF  
                  l3375 032F                    l3367 0327                    l3359 031F                    l3295 028A  
                  l3287 0275                    l3279 024D                    l3383 0348                    l3391 035D  
                  l3631 01FA                    l3623 01E7                    l3615 01D1                    l3607 01C0  
                  l3551 013B                    l3543 012A                    l3535 0114                    l3527 00FD  
                  l3519 00EC                    l3471 0074                    l3463 005D                    l3455 003F  
                  l3447 002C                    l3439 0023                    l2817 04D9                    l2809 04D3  
                  l2825 0490                    l2833 04B0                    l3377 0332                    l3369 032A  
                  l3297 0290                    l3289 027C                    l3393 0364                    l3385 034B  
                  l3633 01FE                    l3625 01E8                    l3617 01E0                    l3641 020A  
                  l3609 01C5                    l3561 015B                    l3553 013E                    l3545 012B  
                  l3537 0123                    l3529 0100                    l3481 008A                    l3473 0077  
                  l3457 0046                    l3465 0060                    l3449 002D                    l2819 04F1  
                  l2827 04A1                    l2835 045D                    l3299 0291                    l3395 036B  
                  l3387 0352                    l3379 0338                    l3635 0200                    l3627 01F1  
                  l3619 01E4                    l3643 0212                    l3571 016B                    l3563 015C  
                  l3547 0134                    l3539 0127                    l3555 0140                    l3491 00B1  
                  l3483 008E                    l3475 007B                    l3467 006A                    l3459 0056  
                  l2829 04A5                    l2837 046D                    l3397 0372                    l3389 0359  
                  l3629 01F9                    l3637 0203                    l3581 0187                    l3573 016F  
                  l3565 015E                    l3557 0148                    l3549 0137                    l3493 00B5  
                  l3485 0091                    l3477 007E                    l3469 006B                    l2791 04C1  
                  l2839 046E                    l2871 041A                    l3399 0377                    l3639 0208  
                  l3591 01A2                    l3583 018C                    l3575 0172                    l3567 015F  
                  l3559 0157                    l3495 00B6                    l3479 0087                    l3487 0095  
                  l2793 04C4                    l2873 041F                    l2865 040F                    l2881 043A  
                  l3593 01A3                    l3585 019B                    l3569 0168                    l3577 0174  
                  l3497 00B8                    l3489 00A1                    l2795 04C7                    l2875 0429  
                  l2867 0410                    l2891 044F                    l2883 043D                    l3595 01AC  
                  l3587 019F                    l3579 017C                    l3499 00B9                    l2797 04C8  
                  l2877 042D                    l2869 0416                    l2885 0441                    l3597 01B4  
                  l3589 01A0                    l2799 04C9                    l2879 0432                    l2887 0442  
                  l3599 01B5                    l2889 0446                    _ADON 00F8                    _DATA 0026  
                  u3000 047D                    u3001 047C                    u3100 044E                    u3101 044D  
                  u4000 0087                    u4001 0086                    u4010 009E                    u4011 009D  
                  u3060 0416                    u4100 0134                    u4020 00B1                    u3061 0415  
                  u4101 0133                    u4021 00B0                    u3070 041A                    u4110 0146  
                  u4030 00C2                    u3071 0419                    u4111 0145                    u4031 00C1  
                  u3080 0429                    u4200 01E0                    u4120 0157                    u4040 00D4  
                  u3081 0428                    u4201 01DF                    u4121 0156                    u4041 00D3  
                  u4025 00AD                    u3090 042D                    u4210 01F1                    u4130 0168  
                  u4050 00E5                    u3091 042C                    u4211 01F0                    u4131 0167  
                  u4051 00E4                    u4220 01F9                    u4140 017A                    u4060 00F6  
                  u4221 01F8                    u4141 0179                    u4061 00F5                    u4230 0210  
                  u4150 0183                    u4070 0108                    u4231 020F                    u4151 0182  
                  u4071 0107                    u4240 0219                    u4160 019B                    u4080 0111  
                  u4241 0218                    u4161 019A                    u4081 0110                    u4170 01AC  
                  u4090 0123                    u4171 01AB                    u4091 0122                    u3700 0247  
                  u4180 01B4                    u3701 0246                    u4181 01B3                    u3710 024D  
                  u4190 01CD                    u3711 024C                    u4191 01CC                    u3720 0266  
                  u3800 0341                    u3721 0265                    u4257 03C2                    u3801 0340  
                  u3730 026E                    u3810 0348                    u4267 0314                    u3731 026D  
                  u3811 0347                    _PEIE 005E                    u3740 027C                    u3900 0394  
                  u3820 0352                    u4277 0444                    u3741 027B                    u3901 0393  
                  u3821 0351                    _INTE 005C                    u2950 048E                    u3750 028A  
                  u3910 039F                    u3830 0359                    _INTF 0059                    u2951 048D  
                  u4287 0451                    u3751 0289                    u3911 039E                    u3831 0358  
                  _RBIE 005B                    u2960 049F                    u3760 02BE                    u3680 022E  
                  u3920 03AB                    u3840 0364                    u2961 049E                    u3761 02BD  
                  u3681 022D                    u3921 03AA                    u3841 0363                    u2970 04AE  
                  u3770 02EB                    u3690 023D                    u3930 03B2                    u3850 036B  
                  u2971 04AD                    u3771 02EA                    u3691 023C                    u3931 03B1  
                  u3851 036A                    u2980 04BF                    u3780 0304                    u3940 03B8  
                  u3860 0372                    u2981 04BE                    u3781 0303                    u3941 03B7  
                  u3861 0371                    u2990 046C                    u3790 030E                    u3950 03BC  
                  u3870 0376                    u2991 046B                    u3791 030D                    u3951 03BB  
                  u3871 0375                    u3880 037E                    u3960 0037                    u3881 037D  
                  u3961 0036                    u3890 038D                    u3970 0056                    u3891 038C  
                  u3971 0055                    u3980 0069                    u3981 0068                    u3990 0074  
                  u3991 0073                    u3975 0052                    _PING 021D                    _WREN 0C62  
                  _adc1 0036        __end_of_ADC_READ 045D                    _main 0011                    _init 04C1  
                  btemp 007E                    start 0010                   ??_ISR 0070                   ?_PING 0070  
                 PING@a 0074                   ?_main 0070                   ?_init 0070                   _EEADR 010D  
                 _CARRY 0018                   i1l623 0404                   i1l624 03E9                   i1l625 03FA  
                 i1l626 0404                   _SPEED 002E                   _PORTA 0005                   _PORTB 0006  
                 _SSPEN 00A5                   _delay 047F                   pclath 000A                   status 0003  
                 wtemp0 007E            __end_of_PING 0338            __end_of_main 021D            __end_of_init 04DE  
                ??_PING 003E                  ??_main 0076                  ??_init 0074                  ?_delay 0070  
                _ADCON0 001F                  _ADCON1 009F                  _ADCLOW 0022   __end_of_OPTION_SELECT 043A  
                _ADRESH 001E                  _EEDATA 010C                  _EECON1 018C                  _EECON2 018D  
                i1l2841 03D4                  i1l2851 03F0                  i1l2843 03D8                  i1l2861 0400  
                i1l2853 03F7                  i1l2845 03DF                  i1l2863 0401                  i1l2855 03FA  
                i1l2847 03E6                  i1l2857 03FE                  i1l2849 03E9                  i1l2859 03FF  
                u301_20 03D8                  u301_21 03D7                  u302_20 03DF                  u302_21 03DE  
                _INTEDG 040E                  u303_20 03E6                  u303_21 03E5                  u304_20 03F0  
                u304_21 03EF                  u305_20 03F7                  u305_21 03F6                  _OSCCON 008F  
                _TRISA0 0428                  _TRISA1 0429                  _TRISB0 0430                  _TRISA2 042A  
                _TRISB1 0431                  _TRISB2 0432                  _TRISB3 0433                  _TRISB4 0434  
                _TRISA6 042E                  _TRISB5 0435                  _TRISA7 042F                  _OUTPUT 0338  
                _delay1 045D                  _delay2 04A1                  _count2 0038                  clrloop 04EA  
             ?_ADC_READ 0070                  saved_w 007E          __pcstackCOMMON 0070           __end_of_delay 04A1  
            ??_ADC_READ 0074                 ??_delay 0074              __pbssBANK0 0020                 ?_OUTPUT 0070  
            __pmaintext 0011                 ?_delay1 0070                 ?_delay2 0070              __pintentry 0004  
               _ADCHIGH 0020                 _GO_DONE 00FA         __size_of_OUTPUT 009C              _lasercount 003A  
       __size_of_delay1 0022         __size_of_delay2 0020            __size_of_ISR 003B              _interrupts 04F1  
  end_of_initialization 04E7       __size_of_ADC_READ 0023          __end_of_OUTPUT 03D4  __size_of_OPTION_SELECT 002B  
        __end_of_delay1 047F          __end_of_delay2 04C1     start_initialization 04DE             __end_of_ISR 040F  
           ?_interrupts 0070                ??_OUTPUT 003E                ??_delay1 0074                ??_delay2 0074  
           __pbssCOMMON 0076           __pcstackBANK0 003E           _OPTION_SELECT 040F               __pnvBANK0 0041  
   __size_of_interrupts 0008               __ptext420 045D               __ptext421 04A1               __ptext422 047F  
             __ptext423 04F1               __ptext424 04C1               __ptext416 0338               __ptext425 03D4  
             __ptext417 021D               __ptext426 0000               __ptext418 043A               __ptext419 040F  
              _ADC_READ 043A          __size_of_delay 0022          ?_OPTION_SELECT 0070       interrupt_function 0004  
       ??_OPTION_SELECT 0074            ??_interrupts 0074           __size_of_PING 011B                _laseroff 003C  
         __size_of_main 020C           __size_of_init 001D                clear_ram 04E9      __end_of_interrupts 04F9  
              intlevel1 0000  
